******************************************************************************
                  TI ARM Linker PC v5.2.2                      
******************************************************************************
>> Linked Fri May 15 22:03:19 2015

OUTPUT FILE NAME:   <FestoStation.out>
ENTRY POINT SYMBOL: "_c_int00"  address: 0000bc89


MEMORY CONFIGURATION

         name            origin    length      used     unused   attr    fill
----------------------  --------  ---------  --------  --------  ----  --------
  FLASH                 00000000   00100000  00016826  000e97da  R  X
  SRAM                  20000000   00040000  00006cb4  0003934c  RW X


SEGMENT ALLOCATION MAP

run origin  load origin   length   init length attrs members
----------  ----------- ---------- ----------- ----- -------
00000000    00000000    00016830   00016830    r-x
  00000000    00000000    0000003c   0000003c    r-- .resetVecs
  00000040    00000040    0000fd5a   0000fd5a    r-x .text
  0000fd9c    0000fd9c    000065f8   000065f8    r-- .const
  00016398    00016398    00000498   00000498    r-- .cinit
20000000    20000000    00000360   00000000    rw-
  20000000    20000000    00000360   00000000    rw- .vecs
20000400    20000400    00006954   00000000    rw-
  20000400    20000400    00005e6c   00000000    rw- .bss
  2000626c    2000626c    000007e8   00000000    rw- .data
  20006a54    20006a54    00000300   00000000    rw- .stack


SECTION ALLOCATION MAP

 output                                  attributes/
section   page    origin      length       input sections
--------  ----  ----------  ----------   ----------------
.resetVecs 
*          0    00000000    0000003c     
                  00000000    0000003c     FestoStation_pem4f.oem4f (.resetVecs)

.text      0    00000040    0000fd5a     
                  00000040    000006c8     kentec320x240x16_ssd2119.obj (.text)
                  00000708    00000610     DK_TM4C129X.obj (.text)
                  00000d18    000004bc     FestoStation.obj (.text)
                  000011d4    00000004     usblib.lib : usbdma.obj (.text:DMAUSBStatus)
                  000011d8    00000434     sysbios.aem4f : BIOS.obj (.text:ti_sysbios_family_arm_m3_Hwi_excDumpRegs__I)
                  0000160c    000003f4     usblib.lib : usbhostenum.obj (.text:USBHostIntHandlerInternal)
                  00001a00    00000370     grlib.lib : image.obj (.text:InternalImageDraw)
                  00001d70    00000370     sysbios.aem4f : BIOS.obj (.text:ti_sysbios_knl_Event_pend__E)
                  000020e0    0000034c     ti.targets.arm.rtsarm.aem4f : System.oem4f (.text:xdc_runtime_System_doPrint__I)
                  0000242c    00000004     driverlib.lib : i2c.obj (.text:I2CMasterControl)
                  00002430    00000320     sysbios.aem4f : BIOS.obj (.text:ti_sysbios_knl_Semaphore_pend__E)
                  00002750    000002e4     grlib.lib : image.obj (.text:PixelTransparentDraw)
                  00002a34    000002d4     rtsv7M4_T_le_v4SPD16_eabi.lib : trgdrv.obj (.text)
                  00002d08    00000278     frame.obj (.text)
                  00002f80    00000256     grlib.lib : string.obj (.text:GrFontGlyphRender)
                  000031d6    00000002     drivers_tivaware.aem4f : SPITivaDMA.oem4f (.text:SPITivaDMA_serviceISR)
                  000031d8    00000254     sysbios.aem4f : BIOS.obj (.text:ti_sysbios_heaps_HeapMem_free__E)
                  0000342c    00000004     driverlib.lib : i2c.obj (.text:I2CMasterDataGet)
                  00003430    00000240     sysbios.aem4f : BIOS.obj (.text:ti_sysbios_heaps_HeapMem_alloc__E)
                  00003670    0000022c                   : BIOS.obj (.text:ti_sysbios_knl_Task_Instance_finalize__E)
                  0000389c    00000214     drivers_tivaware.aem4f : UARTTiva.oem4f (.text:UARTTiva_open)
                  00003ab0    00000204     Boot.aem4f : Boot_sysctl.oem4f (.text:ti_catalog_arm_cortexm4_tiva_ce_Boot_sysCtlClockFreqSetI__I)
                  00003cb4    000001f4     drivers_tivaware.aem4f : SDSPITiva.oem4f (.text:SDSPITiva_diskInitialize)
                  00003ea8    000001f4     sysbios.aem4f : BIOS.obj (.text:ti_sysbios_knl_Task_sleep__E)
                  0000409c    00000004     driverlib.lib : i2c.obj (.text:I2CMasterDataPut)
                  000040a0    000001f0     sysbios.aem4f : BIOS.obj (.text:ti_sysbios_family_arm_m3_Hwi_excHandlerMax__I)
                  00004290    000001c8                   : BIOS.obj (.text:ti_sysbios_knl_Task_Instance_init__E)
                  00004458    000001a0     drivers_tivaware.aem4f : USBMSCHFatFsTiva.oem4f (.text:USBMSCHFatFsTiva_open)
                  000045f8    0000019c     usblib.lib : usbhostenum.obj (.text:USBHCDPipeAllocSize)
                  00004794    00000190                : usbhostenum.obj (.text:ProcessUSBDeviceStateMachine)
                  00004924    00000004     driverlib.lib : lcd.obj (.text:LCDDMAConfigSet)
                  00004928    0000017c     sysbios.aem4f : BIOS.obj (.text:ti_sysbios_family_arm_lm4_TimestampProvider_get64__E)
                  00004aa4    00000178     usblib.lib : usbhhub.obj (.text:USBHHubMain)
                  00004c1c    00000004     driverlib.lib : lcd.obj (.text:LCDIDDConfigSet)
                  00004c20    00000174     sysbios.aem4f : BIOS.obj (.text:ti_sysbios_family_arm_m3_Hwi_excBusFault__I)
                  00004d94    00000170     drivers_tivaware.aem4f : PWMTiva.oem4f (.text:PWMTiva_open)
                  00004f04    00000170     usblib.lib : usbdma.obj (.text:USBLibDMAInit)
                  00005074    0000016c                : usbhostenum.obj (.text:USBHCDInitInternal)
                  000051e0    00000168     sysbios.aem4f : BIOS.obj (.text:ti_sysbios_family_arm_lm4_Timer_start__E)
                  00005348    00000164                   : BIOS.obj (.text:ti_sysbios_family_arm_m3_Hwi_excUsageFault__I)
                  000054ac    00000150     usblib.lib : usbdenum.obj (.text:USBDEP0StateTxConfig)
                  000055fc    00000150                : usbdenum.obj (.text:USBDeviceIntHandlerInternal)
                  0000574c    00000150                : usbhostenum.obj (.text:USBHCDPipeRead)
                  0000589c    00000004     driverlib.lib : ssi.obj (.text:SSIIntClear)
                  000058a0    00000150     sysbios.aem4f : BIOS.obj (.text:ti_sysbios_knl_Event_post__E)
                  000059f0    00000150                   : BIOS.obj (.text:ti_sysbios_knl_Semaphore_post__E)
                  00005b40    00000148     drivers_tivaware.aem4f : GPIOTiva.oem4f (.text:GPIO_setConfig)
                  00005c88    00000148     sysbios.aem4f : BIOS.obj (.text:ti_sysbios_family_arm_m3_Hwi_excMemFault__I)
                  00005dd0    00000140     usblib.lib : usbdconfig.obj (.text:USBDeviceConfig)
                  00005f10    0000013c     sysbios.aem4f : BIOS.obj (.text:ti_sysbios_heaps_HeapMem_Instance_init__E)
                  0000604c    00000138     FestoStation_pem4f.oem4f (.text:ti_uia_loggers_LoggerStopMode_writeMemoryRange__E)
                  00006184    00000004     driverlib.lib : uart.obj (.text:UARTIntClear)
                  00006188    00000134     sysbios.aem4f : BIOS.obj (.text:ti_sysbios_knl_Clock_workFunc__E)
                  000062bc    00000130     driverlib.lib : gpio.obj (.text:GPIOPadConfigSet)
                  000063ec    00000128     usblib.lib : usbhostenum.obj (.text:USBHCDPipeWrite)
                  00006514    00000004     driverlib.lib : usb.obj (.text:USBDevAddrSet)
                  00006518    0000011c     sysbios.aem4f : BIOS.obj (.text:ti_sysbios_family_arm_m3_Hwi_dispatchC__I)
                  00006634    00000004     drivers_tivaware.aem4f : USBMSCHFatFsTiva.oem4f (.text:USBMSCHFatFsTiva_control)
                  00006638    0000011c     sysbios.aem4f : BIOS.obj (.text:ti_sysbios_knl_Clock_Instance_init__E)
                  00006754    00000118     ti.targets.arm.rtsarm.aem4f : Error.oem4f (.text:xdc_runtime_Error_policyDefault__E)
                  0000686c    0000010c     FestoStation_pem4f.oem4f (.text:ti_uia_loggers_LoggerStopMode_write8__E)
                  00006978    00000100     usblib.lib : usbhostenum.obj (.text:USBHCDEnumHandler)
                  00006a78    00000100     ti.targets.arm.rtsarm.aem4f : Core-mem.oem4f (.text:xdc_runtime_Core_createObject__I)
                  00006b78    000000fc     drivers_tivaware.aem4f : PWMTiva.oem4f (.text:PWMTiva_setDuty)
                  00006c74    000000fc     usblib.lib : usbhmsc.obj (.text:USBHMSCDriveReady)
                  00006d70    000000f8     drivers_tivaware.aem4f : SDSPITiva.oem4f (.text:SDSPITiva_open)
                  00006e68    000000f8     ti.targets.arm.rtsarm.aem4f : Startup.oem4f (.text:xdc_runtime_Startup_startMods__I)
                  00006f60    000000f8     FestoStation_pem4f.oem4f (.text:xdc_runtime_System_printfExtend__I)
                  00007058    000000f4     drivers_tivaware.aem4f : SDSPITiva.oem4f (.text:SDSPITiva_diskIOctrl)
                  0000714c    000000f4     usblib.lib : usbhostenum.obj (.text:USBHCDInit)
                  00007240    000000f4     sysbios.aem4f : m3_Hwi_asm.obj (.text:ti_sysbios_family_arm_m3_Hwi_dispatch__I)
                  00007334    000000f4     FestoStation_pem4f.oem4f (.text:ti_uia_loggers_LoggerStopMode_write4__E)
                  00007428    000000f0     usblib.lib : usbhostenum.obj (.text:USBHCDControlTransfer)
                  00007518    000000f0                : usbhostenum.obj (.text:USBHCDPipeFree)
                  00007608    000000ec     drivers_tivaware.aem4f : SPITivaDMA.oem4f (.text:SPITivaDMA_open)
                  000076f4    000000ea     usblib.lib : usbdma.obj (.text:iDMAUSBTransfer)
                  000077de    00000002     drivers_tivaware.aem4f : WatchdogTiva.oem4f (.text:WatchdogTiva_close)
                  000077e0    000000e8                            : I2CTiva.oem4f (.text:I2CTiva_open)
                  000078c8    000000e8                            : SDSPITiva.oem4f (.text:SDSPITiva_diskWrite)
                  000079b0    000000e8     FestoStation_pem4f.oem4f (.text:ti_uia_loggers_LoggerStopMode_write2__E)
                  00007a98    000000e4     usblib.lib : usbdenum.obj (.text:USBDGetDescriptor)
                  00007b7c    000000e4     FestoStation_pem4f.oem4f (.text:ti_uia_loggers_LoggerStopMode_write1__E)
                  00007c60    000000e0     usblib.lib : usbhostenum.obj (.text:USBHCDMain)
                  00007d40    000000dc     drivers_tivaware.aem4f : SPITivaDMA.oem4f (.text:SPITivaDMA_configDMA)
                  00007e1c    000000d8     usblib.lib : usbdenum.obj (.text:USBDeviceEnumHandler)
                  00007ef4    000000d8                : usbhostenum.obj (.text:USBHCDPipeConfig)
                  00007fcc    00000004     drivers_tivaware.aem4f : USBMSCHFatFsTiva.oem4f (.text:USBMSCHFatFsTiva_hwiHandler)
                  00007fd0    000000d8     sysbios.aem4f : BIOS.obj (.text:ti_sysbios_family_arm_lm4_TimestampProvider_get32__E)
                  000080a8    000000d8     FestoStation_pem4f.oem4f (.text:ti_uia_loggers_LoggerStopMode_write0__E)
                  00008180    000000d6     drivers_tivaware.aem4f : I2CTiva.oem4f (.text:I2CTiva_hwiFxn)
                  00008256    00000002     usblib.lib : usbdma.obj (.text:iDMAUSBArbSizeSet)
                  00008258    000000cc     sysbios.aem4f : BIOS.obj (.text:ti_sysbios_knl_Task_schedule__I)
                  00008324    000000cc     ti.targets.arm.rtsarm.aem4f : Core-smem.oem4f (.text:xdc_runtime_Core_constructObject__I)
                  000083f0    000000c6     drivers_tivaware.aem4f : SDSPITiva.oem4f (.text:send_cmd)
                  000084b6    000000c4     grlib.lib : string.obj (.text:GrDefaultStringRenderer)
                  0000857a    00000006     driverlib.lib : gpio.obj (.text:GPIOIntClear)
                  00008580    000000c4     sysbios.aem4f : BIOS.obj (.text:ti_sysbios_family_arm_m3_Hwi_Module_startup__E)
                  00008644    000000c2     driverlib.lib : usb.obj (.text:USBHostEndpointConfig)
                  00008706    00000002     usblib.lib : usbdma.obj (.text:iDMAUSBUnitSizeSet)
                  00008708    000000c0     drivers_tivaware.aem4f : SDSPITiva.oem4f (.text:SDSPITiva_diskRead)
                  000087c8    000000c0     usblib.lib : usbdma.obj (.text:uDMAUSBChannelAllocate)
                  00008888    000000bc                : usbmode.obj (.text:USB0OTGModeIntHandler)
                  00008944    00000004     driverlib.lib : watchdog.obj (.text:WatchdogReloadSet)
                  00008948    000000bc     sysbios.aem4f : BIOS.obj (.text:ti_sysbios_family_arm_m3_Hwi_excDebugMon__I)
                  00008a04    00000004     FestoStation_pem4f.oem4f (.text:ti_sysbios_BIOS_RtsGateProxy_enter__E)
                  00008a08    000000bc     sysbios.aem4f : BIOS.obj (.text:ti_sysbios_family_arm_m3_Hwi_excHardFault__I)
                  00008ac4    00000004     FestoStation_pem4f.oem4f (.text:ti_sysbios_BIOS_RtsGateProxy_leave__E)
                  00008ac8    000000bc     sysbios.aem4f : BIOS.obj (.text:ti_sysbios_knl_Task_startCore__E)
                  00008b84    000000ba     usblib.lib : usbdma.obj (.text:uDMAUSBTransfer)
                  00008c3e    00000002     FestoStation_pem4f.oem4f (.text:ti_sysbios_BIOS_nullFunc__I)
                  00008c40    000000b4     sysbios.aem4f : BIOS.obj (.text:ti_sysbios_gates_GateMutex_enter__E)
                  00008cf4    00000004                   : BIOS.obj (.text:ti_sysbios_family_arm_lm4_Timer_masterEnable__I)
                  00008cf8    000000b4                   : BIOS.obj (.text:ti_sysbios_knl_Task_checkStacks__E)
                  00008dac    00000004     FestoStation_pem4f.oem4f (.text:ti_sysbios_family_arm_m3_Hwi_destruct)
                  00008db0    000000b0     sysbios.aem4f : BIOS.obj (.text:ti_sysbios_utils_Load_idleFxn__E)
                  00008e60    000000ac                   : BIOS.obj (.text:ti_sysbios_family_arm_lm4_Timer_enableTiva__I)
                  00008f0c    00000004     FestoStation_pem4f.oem4f (.text:ti_sysbios_family_arm_m3_TaskSupport_Module__startupDone__S)
                  00008f10    000000ac     sysbios.aem4f : BIOS.obj (.text:ti_sysbios_utils_Load_updateLoads__E)
                  00008fbc    00000004     FestoStation_pem4f.oem4f (.text:ti_sysbios_gates_GateMutex_destruct)
                  00008fc0    000000a8     sysbios.aem4f : BIOS.obj (.text:ti_sysbios_family_arm_lm4_Timer_enableTimers__I)
                  00009068    000000a8                   : BIOS.obj (.text:ti_sysbios_knl_Task_blockI__E)
                  00009110    000000a8                   : BIOS.obj (.text:ti_sysbios_knl_Task_postInit__I)
                  000091b8    000000a4     usblib.lib : usbhmsc.obj (.text:USBHMSCOpen)
                  0000925c    000000a4     drivers_tivaware.aem4f : WatchdogTiva.oem4f (.text:WatchdogTiva_open)
                  00009300    000000a4     sysbios.aem4f : BIOS.obj (.text:ti_sysbios_knl_Clock_Instance_finalize__E)
                  000093a4    000000a0     auto_init.aem4f : auto_init.oem4f (.text)
                  00009444    000000a0     drivers_tivaware.aem4f : SDSPITiva.oem4f (.text:rcvr_datablock)
                  000094e4    000000a0     ti.targets.arm.rtsarm.aem4f : Text.oem4f (.text:xdc_runtime_Text_putMod__E)
                  00009584    0000009c     usblib.lib : usbhostenum.obj (.text:USBHCDDeviceDisconnected)
                  00009620    0000009c     rtsv7M4_T_le_v4SPD16_eabi.lib : memcpy_t2.obj (.text)
                  000096bc    0000009a     ti.targets.arm.rtsarm.aem4f : Text.oem4f (.text:xdc_runtime_Text_putSite__E)
                  00009756    0000009a     drivers_tivaware.aem4f : SDSPITiva.oem4f (.text:xmit_datablock)
                  000097f0    00000098                            : GPIOTiva.oem4f (.text:GPIO_init)
                  00009888    00000098                            : UARTTiva.oem4f (.text:UARTTiva_readPolling)
                  00009920    00000098     usblib.lib : usbdenum.obj (.text:USBDSetInterface)
                  000099b8    00000098     Boot.aem4f : Boot.oem4f (.text:ti_catalog_arm_cortexm4_tiva_ce_Boot_sysCtlClockFreqSet__E)
                  00009a50    00000094     usblib.lib : usbhostenum.obj (.text:USBHCDOpenDriver)
                  00009ae4    00000004     FestoStation_pem4f.oem4f (.text:ti_sysbios_heaps_HeapMem_Module_GateProxy_enter__E)
                  00009ae8    00000094     sysbios.aem4f : BIOS.obj (.text:ti_sysbios_family_arm_m3_Hwi_Instance_init__E)
                  00009b7c    00000004     FestoStation_pem4f.oem4f (.text:ti_sysbios_heaps_HeapMem_Module_GateProxy_leave__E)
                  00009b80    00000094     sysbios.aem4f : BIOS.obj (.text:ti_sysbios_family_arm_m3_Hwi_initNVIC__E)
                  00009c14    00000004     FestoStation_pem4f.oem4f (.text:ti_sysbios_knl_Clock_TimerProxy_getMaxTicks__E)
                  00009c18    00000094     sysbios.aem4f : BIOS.obj (.text:ti_sysbios_knl_Task_exit__E)
                  00009cac    00000090     usblib.lib : usbhostenum.obj (.text:FIFOAlloc)
                  00009d3c    00000004     FestoStation_pem4f.oem4f (.text:ti_sysbios_knl_Clock_TimerProxy_getPeriod__E)
                  00009d40    00000090     sysbios.aem4f : BIOS.obj (.text:ti_sysbios_knl_Task_unblockI__E)
                  00009dd0    00000090     ti.uia.loggers.aem4f : LoggerStopMode.oem4f (.text:ti_uia_loggers_LoggerStopMode_initQueueDescriptor__E)
                  00009e60    0000008e     drivers_tivaware.aem4f : UARTTiva.oem4f (.text:readTaskBlocking)
                  00009eee    0000008c                            : UARTTiva.oem4f (.text:UARTTiva_control)
                  00009f7a    0000008c                            : UARTTiva.oem4f (.text:UARTTiva_write)
                  0000a006    00000002     FestoStation_pem4f.oem4f (.text:ti_uia_loggers_LoggerStopMode_setFilterLevel__E)
                  0000a008    0000008c     usblib.lib : usbdenum.obj (.text:USBDSetConfiguration)
                  0000a094    0000008c                : usbdconfig.obj (.text:USBDeviceConfigAlternate)
                  0000a120    0000008c                : usbhostenum.obj (.text:USBHCDClearFeature)
                  0000a1ac    0000008c     sysbios.aem4f : m3_TaskSupport_asm.obj (.text:ti_sysbios_family_arm_m3_TaskSupport_buildTaskStack)
                  0000a238    00000088     drivers_tivaware.aem4f : PWMTiva.oem4f (.text:PWMTiva_control)
                  0000a2c0    00000088     usblib.lib : usbhscsi.obj (.text:USBHSCSISendCommand)
                  0000a348    00000088     sysbios.aem4f : BIOS.obj (.text:ti_sysbios_knl_Mailbox_Module_startup__E)
                  0000a3d0    00000084     usblib.lib : usbdma.obj (.text:iDMAUSBChannelAllocate)
                  0000a454    00000084     driverlib.lib : udma.obj (.text:uDMAChannelTransferSet)
                  0000a4d8    0000007e     drivers_tivaware.aem4f : I2CTiva.oem4f (.text:I2CTiva_transfer)
                  0000a556    00000002     ti.uia.loggers.aem4f : LoggerStopMode.oem4f (.text:ti_uia_loggers_LoggerStopMode_setPriority__E)
                  0000a558    0000007c     drivers_tivaware.aem4f : SPITivaDMA.oem4f (.text:SPITivaDMA_initHw)
                  0000a5d4    0000007c     usblib.lib : usbdenum.obj (.text:USBDClearFeature)
                  0000a650    0000007c     drivers_tivaware.aem4f : UARTTiva.oem4f (.text:readIsrTextBlocking)
                  0000a6cc    00000004     FestoStation_pem4f.oem4f (.text:ti_sysbios_knl_Clock_destruct)
                  0000a6d0    0000007c     sysbios.aem4f : BIOS.obj (.text:ti_sysbios_utils_Load_logLoads__I)
                  0000a74c    0000007a     driverlib.lib : usb.obj (.text:USBDevEndpointConfigSet)
                  0000a7c6    0000007a     drivers_tivaware.aem4f : UARTTiva.oem4f (.text:readTaskCallback)
                  0000a840    0000007a     rtsv7M4_T_le_v4SPD16_eabi.lib : memset_t2.obj (.text)
                  0000a8ba    00000076     drivers_tivaware.aem4f : UARTTiva.oem4f (.text:readIsrTextCallback)
                  0000a930    00000074     usblib.lib : usbdenum.obj (.text:USBDGetStatus)
                  0000a9a4    00000074                : usbhostenum.obj (.text:USBHCDGetConfigDescriptor)
                  0000aa18    00000074     sysbios.aem4f : BIOS.obj (.text:ti_sysbios_family_arm_m3_Hwi_postInit__I)
                  0000aa8c    00000004     FestoStation_pem4f.oem4f (.text:ti_sysbios_knl_Queue_destruct)
                  0000aa90    00000074     sysbios.aem4f : BIOS.obj (.text:ti_sysbios_knl_Clock_start__E)
                  0000ab04    00000074     ti.uia.runtime.aem4f : QueueDescriptor.oem4f (.text:ti_uia_runtime_QueueDescriptor_addToList__E)
                  0000ab78    00000072     usblib.lib : usbdma.obj (.text:uDMAUSBArbSizeSet)
                  0000abea    00000070     drivers_tivaware.aem4f : SPITivaDMA.oem4f (.text:SPITivaDMA_transferCancel)
                  0000ac5a    00000002     usblib.lib : usbdma.obj (.text:uDMAUSBChannelIntDisable)
                  0000ac5c    00000070                : usbdenum.obj (.text:USBDEP0StateTx)
                  0000accc    00000004     FestoStation_pem4f.oem4f (.text:ti_sysbios_knl_Semaphore_delete)
                  0000acd0    00000070     sysbios.aem4f : BIOS.obj (.text:ti_sysbios_knl_Semaphore_Instance_init__E)
                  0000ad40    00000070     usblib.lib : usbdma.obj (.text:uDMAUSBUnitSizeSet)
                  0000adb0    0000006c                : usbmode.obj (.text:USBOTGSetMode)
                  0000ae1c    00000004     FestoStation_pem4f.oem4f (.text:ti_sysbios_knl_Semaphore_destruct)
                  0000ae20    0000006c     sysbios.aem4f : BIOS.obj (.text:ti_sysbios_utils_Load_updateThreadContexts__E)
                  0000ae8c    0000006c     drivers_tivaware.aem4f : UARTTiva.oem4f (.text:writeData)
                  0000aef8    0000006c     ti.targets.arm.rtsarm.aem4f : Error.oem4f (.text:xdc_runtime_Error_print__E)
                  0000af64    0000006c                                 : Memory.oem4f (.text:xdc_runtime_Memory_alloc__E)
                  0000afd0    0000006a     grlib.lib : string.obj (.text:GrStringWidthGet)
                  0000b03a    0000006a     drivers_tivaware.aem4f : PWMTiva.oem4f (.text:PWMTiva_close)
                  0000b0a4    0000006a     rtsv7M4_T_le_v4SPD16_eabi.lib : copy_decompress_rle.obj (.text)
                  0000b10e    00000002     usblib.lib : usbdma.obj (.text:uDMAUSBChannelIntEnable)
                  0000b110    00000068     grlib.lib : context.obj (.text:GrContextInit)
                  0000b178    00000068     driverlib.lib : interrupt.obj (.text:IntDisable)
                  0000b1e0    00000068                   : interrupt.obj (.text:IntEnable)
                  0000b248    00000068     usblib.lib : usbdenum.obj (.text:USBDSetFeature)
                  0000b2b0    00000068     rtsv7M4_T_le_v4SPD16_eabi.lib : trgmsg.obj (.text)
                  0000b318    00000066     ti.uia.loggers.aem4f : LoggerStopMode.oem4f (.text:ti_uia_loggers_LoggerStopMode_flush__E)
                  0000b37e    00000066     ti.targets.arm.rtsarm.aem4f : Core-mem.oem4f (.text:xdc_runtime_Core_deleteObject__I)
                  0000b3e4    00000064     drivers_tivaware.aem4f : GPIOTiva.oem4f (.text:GPIO_hwiIntFxn)
                  0000b448    00000064     driverlib.lib : interrupt.obj (.text:IntIsEnabled)
                  0000b4ac    00000004     FestoStation_pem4f.oem4f (.text:ti_sysbios_knl_Task_destruct)
                  0000b4b0    00000064     sysbios.aem4f : BIOS.obj (.text:ti_sysbios_family_arm_lm4_Timer_Module_startup__E)
                  0000b514    00000064     FestoStation_pem4f.oem4f (.text:ti_sysbios_family_arm_m3_Hwi_create)
                  0000b578    00000064     usblib.lib : usbdma.obj (.text:uDMAUSBChannelEnable)
                  0000b5dc    00000064     ti.targets.arm.rtsarm.aem4f : System.oem4f (.text:xdc_runtime_System_formatNum__I)
                  0000b640    00000062     grlib.lib : context.obj (.text:GrContextClipRegionSet)
                  0000b6a2    00000062     drivers_tivaware.aem4f : I2CTiva.oem4f (.text:I2CTiva_primeTransfer)
                  0000b704    00000062                            : SPITivaDMA.oem4f (.text:SPITivaDMA_transfer)
                  0000b766    00000002     FestoStation_pem4f.oem4f (.text:xdc_runtime_Startup_reset__I)
                  0000b768    00000060     usblib.lib : usbdenum.obj (.text:USBDReadAndDispatchRequest)
                  0000b7c8    00000060                : usbhostenum.obj (.text:USBHostCheckPipes)
                  0000b828    00000060     sysbios.aem4f : BIOS.obj (.text:ti_sysbios_family_arm_lm4_Timer_isrStub__E)
                  0000b888    00000060                   : BIOS.obj (.text:ti_sysbios_knl_Clock_logTick__E)
                  0000b8e8    00000060                   : BIOS.obj (.text:ti_sysbios_utils_Load_logCPULoad__I)
                  0000b948    0000005e     driverlib.lib : usb.obj (.text:USBDevEndpointStatusClear)
                  0000b9a6    00000002     --HOLE-- [fill = 0]
                  0000b9a8    0000005c     usblib.lib : usbhostenum.obj (.text:ConfigDescAlloc)
                  0000ba04    0000005c                : usbhostenum.obj (.text:USBHCDGetDeviceDescriptor)
                  0000ba60    0000005c                : usbhscsi.obj (.text:USBHSCSIRead10)
                  0000babc    0000005c                : usbhscsi.obj (.text:USBHSCSIWrite10)
                  0000bb18    0000005c     sysbios.aem4f : BIOS.obj (.text:ti_sysbios_knl_Task_Module_startup__E)
                  0000bb74    0000005c     drivers_tivaware.aem4f : SDSPITiva.oem4f (.text:wait_ready)
                  0000bbd0    0000005b     ti.targets.arm.rtsarm.aem4f : Text.oem4f (.text:xdc_runtime_Text_putLab__E)
                  0000bc2b    00000001     --HOLE-- [fill = 0]
                  0000bc2c    0000005a     grlib.lib : string.obj (.text:FontWideGlyphDataGet)
                  0000bc86    00000002     --HOLE-- [fill = 0]
                  0000bc88    00000058     boot.aem4f : boot.oem4f (.text)
                  0000bce0    00000058     usblib.lib : usbhostenum.obj (.text:USBHCDEP0StateTx)
                  0000bd38    00000058                : usbhostenum.obj (.text:USBHCDHubDeviceConnected)
                  0000bd90    00000058     FestoStation_pem4f.oem4f (.text:ti_sysbios_family_arm_m3_Hwi_construct)
                  0000bde8    00000058     sysbios.aem4f : m3_Hwi_asm_switch.obj (.text:ti_sysbios_family_arm_m3_Hwi_initStacks__E)
                  0000be40    00000056     driverlib.lib : gpio.obj (.text:GPIOIntTypeSet)
                  0000be96    00000056     usblib.lib : usbdma.obj (.text:uDMAUSBChannelRelease)
                  0000beec    00000054     FestoStation_pem4f.oem4f (.text:ti_sysbios_knl_Task_construct)
                  0000bf40    00000054     sysbios.aem4f : BIOS.obj (.text:ti_sysbios_utils_Load_updateCurrentThreadTime__E)
                  0000bf94    00000054     ti.targets.arm.rtsarm.aem4f : Assert.oem4f (.text:xdc_runtime_Assert_raise__I)
                  0000bfe8    00000052     drivers_tivaware.aem4f : SPITivaDMA.oem4f (.text:SPITivaDMA_hwiFxn)
                  0000c03a    00000052     usblib.lib : usbulpi.obj (.text:ULPIConfigSet)
                  0000c08c    00000052     drivers_tivaware.aem4f : USBMSCHFatFsTiva.oem4f (.text:USBMSCHFatFsTiva_close)
                  0000c0de    00000052                            : UARTTiva.oem4f (.text:readIsrBinaryBlocking)
                  0000c130    00000050                            : GPIOTiva.oem4f (.text:GPIO_setCallback)
                  0000c180    00000050                            : GPIOTiva.oem4f (.text:GPIO_toggle)
                  0000c1d0    00000050                            : GPIOTiva.oem4f (.text:GPIO_write)
                  0000c220    00000050     driverlib.lib : sysctl.obj (.text:SysCtlPeripheralReset)
                  0000c270    00000050     usblib.lib : usbdcdesc.obj (.text:USBDCDConfigDescGet)
                  0000c2c0    00000050                : usbdenum.obj (.text:USBDeviceResumeTickHandler)
                  0000c310    00000050     drivers_tivaware.aem4f : USBMSCHFatFsTiva.oem4f (.text:USBMSCHFatFsTiva_diskWrite)
                  0000c360    00000050     Boot.aem4f : Boot_sysctl.oem4f (.text:_SysCtlFrequencyGet)
                  0000c3b0    00000050     ti.targets.arm.rtsarm.aem4f : Startup.oem4f (.text:xdc_runtime_Startup_exec__E)
                  0000c400    00000050                                 : Text.oem4f (.text:xdc_runtime_Text_visitRope2__I)
                  0000c450    0000004e     usblib.lib : usbhhub.obj (.text:HubGetPortStatus)
                  0000c49e    0000004e     driverlib.lib : usb.obj (.text:USBDevEndpointStallClear)
                  0000c4ec    0000004c     usblib.lib : usbdcdesc.obj (.text:ConfigAlternateInterfaceGet)
                  0000c538    0000004c                : usbdconfig.obj (.text:GetEPDescriptorType)
                  0000c584    0000004c                : usbhhub.obj (.text:HubDriverDeviceDisconnect)
                  0000c5d0    0000004c     drivers_tivaware.aem4f : UARTTiva.oem4f (.text:UARTTiva_close)
                  0000c61c    0000004c     driverlib.lib : usb.obj (.text:USBEndpointDMAConfigSet)
                  0000c668    0000004c     usblib.lib : usbhostenum.obj (.text:USBHCDPowerConfigSet)
                  0000c6b4    0000004c                : usbhostenum.obj (.text:USBHCDSetAddress)
                  0000c700    0000004c     drivers_tivaware.aem4f : USBMSCHFatFsTiva.oem4f (.text:USBMSCHFatFsTiva_diskRead)
                  0000c74c    0000004c                            : UARTTiva.oem4f (.text:readIsrBinaryCallback)
                  0000c798    0000004c     rtsv7M4_T_le_v4SPD16_eabi.lib : cpy_tbl.obj (.text)
                  0000c7e4    00000004     ti.uia.loggers.aem4f : LoggerStopMode.oem4f (.text:ti_uia_loggers_LoggerStopMode_getContents__E)
                  0000c7e8    0000004c     sysbios.aem4f : BIOS.obj (.text:ti_sysbios_heaps_HeapMem_getStats__E)
                  0000c834    00000004     FestoStation_pem4f.oem4f (.text:ti_uia_loggers_LoggerStopMode_getFilterLevel__E)
                  0000c838    0000004c     sysbios.aem4f : BIOS.obj (.text:ti_sysbios_knl_Task_allBlockedFunction__I)
                  0000c884    0000004c     ti.uia.loggers.aem4f : LoggerStopMode.oem4f (.text:ti_uia_loggers_LoggerStopMode_Module_startup__E)
                  0000c8d0    0000004a     grlib.lib : string.obj (.text:UpdateContextCharMapping)
                  0000c91a    0000004a     usblib.lib : usbdma.obj (.text:iDMAUSBChannelEnable)
                  0000c964    0000004a                : usbdma.obj (.text:uDMAUSBChannelDisable)
                  0000c9ae    00000002     --HOLE-- [fill = 0]
                  0000c9b0    00000048     driverlib.lib : gpio.obj (.text:GPIOPinConfigure)
                  0000c9f8    00000048                   : i2c.obj (.text:I2CMasterInitExpClk)
                  0000ca40    00000048     drivers_tivaware.aem4f : UARTTiva.oem4f (.text:UARTTiva_writeCancel)
                  0000ca88    00000048     usblib.lib : usbdenum.obj (.text:USBDStringIndexFromRequest)
                  0000cad0    00000048                : usbdenum.obj (.text:USBDeviceEnumResetHandler)
                  0000cb18    00000048     driverlib.lib : usb.obj (.text:USBFIFOFlush)
                  0000cb60    00000048     usblib.lib : usbhhub.obj (.text:USBHHubInit)
                  0000cba8    00000048     sysbios.aem4f : BIOS.obj (.text:ti_sysbios_family_arm_m3_Hwi_disableInterrupt__E)
                  0000cbf0    00000048                   : BIOS.obj (.text:ti_sysbios_family_arm_m3_Hwi_enableInterrupt__E)
                  0000cc38    00000048                   : BIOS.obj (.text:ti_sysbios_family_arm_m3_Hwi_excReserved__I)
                  0000cc80    00000048     driverlib.lib : udma.obj (.text:uDMAChannelAttributeDisable)
                  0000ccc8    00000046     drivers_tivaware.aem4f : RingBuf.oem4f (.text:RingBuf_put)
                  0000cd0e    00000046     ti.targets.arm.rtsarm.aem4f : Core-params.oem4f (.text:xdc_runtime_Core_assignParams__I)
                  0000cd54    00000044     usblib.lib : usbdenum.obj (.text:USBDGetInterface)
                  0000cd98    00000044     driverlib.lib : usb.obj (.text:USBEndpointDataGet)
                  0000cddc    00000044     ti.sysbios.fatfs.aem4f : ff.oem4f (.text:f_mount)
                  0000ce20    00000044     rtsv7M4_T_le_v4SPD16_eabi.lib : exit.obj (.text)
                  0000ce64    00000044     drivers_tivaware.aem4f : SDSPITiva.oem4f (.text:send_initial_clock_train)
                  0000cea8    00000044     sysbios.aem4f : BIOS.obj (.text:ti_sysbios_family_arm_lm4_Timer_stop__E)
                  0000ceec    00000004     ti.uia.loggers.aem4f : LoggerStopMode.oem4f (.text:ti_uia_loggers_LoggerStopMode_getInstanceId__E)
                  0000cef0    00000044     sysbios.aem4f : BIOS.obj (.text:ti_sysbios_family_arm_m3_Hwi_getStackInfo__E)
                  0000cf34    00000044     ti.uia.loggers.aem4f : LoggerStopMode.oem4f (.text:ti_uia_loggers_LoggerStopMode_initBuffer__I)
                  0000cf78    00000044     ti.targets.arm.rtsarm.aem4f : Error.oem4f (.text:xdc_runtime_Error_setX__E)
                  0000cfbc    00000044                                 : SysMin.oem4f (.text:xdc_runtime_SysMin_flush__E)
                  0000d000    00000044                                 : Text.oem4f (.text:xdc_runtime_Text_xprintf__I)
                  0000d044    00000042     driverlib.lib : ssi.obj (.text:SSIConfigSetExpClk)
                  0000d086    00000042                   : uart.obj (.text:UARTConfigSetExpClk)
                  0000d0c8    00000042     drivers_tivaware.aem4f : UARTTiva.oem4f (.text:UARTTiva_writePolling)
                  0000d10a    00000042     rtsv7M4_T_le_v4SPD16_eabi.lib : u_divt2.obj (.text)
                  0000d14c    00000040     drivers_tivaware.aem4f : RingBuf.oem4f (.text:RingBuf_get)
                  0000d18c    00000040                            : UARTTiva.oem4f (.text:UARTTiva_read)
                  0000d1cc    00000040     usblib.lib : usbhmsc.obj (.text:USBHMSCGetMaxLUN)
                  0000d20c    00000040     drivers_tivaware.aem4f : USBMSCHFatFsTiva.oem4f (.text:USBMSCHFatFsTiva_diskInitialize)
                  0000d24c    00000004     ti.uia.loggers.aem4f : LoggerStopMode.oem4f (.text:ti_uia_loggers_LoggerStopMode_getMaxLength__E)
                  0000d250    00000040     sysbios.aem4f : BIOS.obj (.text:ti_sysbios_family_arm_lm4_Timer_startup__E)
                  0000d290    0000003e     usblib.lib : usbhscsi.obj (.text:USBHSCSIInquiry)
                  0000d2ce    0000003e                : usbhscsi.obj (.text:USBHSCSIReadCapacity)
                  0000d30c    0000003c                : usbhhub.obj (.text:HubDriverReset)
                  0000d348    0000003c     drivers_tivaware.aem4f : SPITivaDMA.oem4f (.text:SPITivaDMA_close)
                  0000d384    0000003c     usblib.lib : usbhscsi.obj (.text:USBHSCSIRequestSense)
                  0000d3c0    0000003c                : usbdma.obj (.text:iDMAUSBChannelRelease)
                  0000d3fc    00000004     ti.uia.loggers.aem4f : LoggerStopMode.oem4f (.text:ti_uia_loggers_LoggerStopMode_getPriority__E)
                  0000d400    0000003c     sysbios.aem4f : BIOS.obj (.text:ti_sysbios_family_arm_m3_Hwi_excSvCall__I)
                  0000d43c    00000004     ti.uia.loggers.aem4f : LoggerStopMode.oem4f (.text:ti_uia_loggers_LoggerStopMode_getTransferType__E)
                  0000d440    0000003c     sysbios.aem4f : BIOS.obj (.text:ti_sysbios_family_arm_m3_TaskSupport_start__E)
                  0000d47c    00000004     ti.targets.arm.rtsarm.aem4f : Error.oem4f (.text:xdc_runtime_Error_getSite__E)
                  0000d480    0000003c     sysbios.aem4f : BIOS.obj (.text:ti_sysbios_heaps_HeapMem_init__I)
                  0000d4bc    0000003a     grlib.lib : string.obj (.text:FontGlyphDataGet)
                  0000d4f6    0000003a     drivers_tivaware.aem4f : I2CTiva.oem4f (.text:I2CTiva_completeTransfer)
                  0000d530    0000003a     driverlib.lib : lcd.obj (.text:LCDIDDTimingSet)
                  0000d56a    0000003a     usblib.lib : usbdcdesc.obj (.text:USBDCDConfigGetInterfaceEndpoint)
                  0000d5a4    0000003a     driverlib.lib : usb.obj (.text:USBFIFOConfigSet)
                  0000d5de    00000002     --HOLE-- [fill = 0]
                  0000d5e0    00000038     drivers_tivaware.aem4f : I2C.oem4f (.text:I2C_init)
                  0000d618    00000038                            : PWM.oem4f (.text:PWM_init)
                  0000d650    00000038                            : SDSPI.oem4f (.text:SDSPI_init)
                  0000d688    00000038                            : SPI.oem4f (.text:SPI_init)
                  0000d6c0    00000038                            : UART.oem4f (.text:UART_init)
                  0000d6f8    00000038     usblib.lib : usbhostenum.obj (.text:USBHCDReset)
                  0000d730    00000038                : usbhscsi.obj (.text:USBHSCSITestUnitReady)
                  0000d768    00000038     driverlib.lib : usb.obj (.text:USBIntStatusControl)
                  0000d7a0    00000038     drivers_tivaware.aem4f : USBMSCHFatFs.oem4f (.text:USBMSCHFatFs_init)
                  0000d7d8    00000038                            : Watchdog.oem4f (.text:Watchdog_init)
                  0000d810    00000038     sysbios.aem4f : BIOS.obj (.text:ti_sysbios_family_arm_m3_Hwi_excNoIsr__I)
                  0000d848    00000038                   : BIOS.obj (.text:ti_sysbios_knl_Task_processVitalTaskFlag__I)
                  0000d880    00000038     ti.targets.arm.rtsarm.aem4f : SysMin.oem4f (.text:xdc_runtime_SysMin_putch__E)
                  0000d8b8    00000038                                 : System.oem4f (.text:xdc_runtime_System_atexit__E)
                  0000d8f0    00000036     usblib.lib : usbhhub.obj (.text:HubClearPortFeature)
                  0000d926    00000036                : usbhhub.obj (.text:HubSetPortFeature)
                  0000d95c    00000036     drivers_tivaware.aem4f : I2CTiva.oem4f (.text:I2CTiva_close)
                  0000d992    00000036                            : UARTTiva.oem4f (.text:UARTTiva_readCancel)
                  0000d9c8    00000034                            : EMAC.oem4f (.text:EMAC_init)
                  0000d9fc    00000034     usblib.lib : usbtick.obj (.text:InternalUSBStartOfFrameTick)
                  0000da30    00000034     driverlib.lib : sysctl.obj (.text:SysCtlPeripheralEnable)
                  0000da64    00000034     drivers_tivaware.aem4f : UARTTiva.oem4f (.text:UARTTiva_hwiIntFxn)
                  0000da98    00000034     usblib.lib : usbhostenum.obj (.text:USBHCDSetConfig)
                  0000dacc    00000034                : usbmode.obj (.text:USBOTGRemovePower)
                  0000db00    00000034                : usbdma.obj (.text:iDMAUSBChannelStatus)
                  0000db34    00000004     FestoStation_pem4f.oem4f (.text:xdc_runtime_System_Module_GateProxy_enter__E)
                  0000db38    00000034     sysbios.aem4f : BIOS.obj (.text:ti_sysbios_family_arm_m3_Hwi_excNmi__I)
                  0000db6c    00000034     FestoStation_pem4f.oem4f (.text:ti_sysbios_knl_Clock_construct)
                  0000dba0    00000034     FestoStation_pem4f.oem4f (.text:ti_sysbios_knl_Semaphore_create)
                  0000dbd4    00000034     ti.uia.loggers.aem4f : LoggerStopMode.oem4f (.text:ti_uia_loggers_LoggerStopMode_reset__E)
                  0000dc08    00000034     ti.targets.arm.rtsarm.aem4f : Core-label.oem4f (.text:xdc_runtime_Core_assignLabel__I)
                  0000dc3c    00000033                                 : Text.oem4f (.text:xdc_runtime_Text_printVisFxn__I)
                  0000dc6f    00000001     --HOLE-- [fill = 0]
                  0000dc70    00000032     usblib.lib : usbdcdesc.obj (.text:NextConfigDescGet)
                  0000dca2    00000032     driverlib.lib : usb.obj (.text:USBDevEndpointStall)
                  0000dcd4    00000032     drivers_tivaware.aem4f : USBMSCHFatFsTiva.oem4f (.text:USBMSCHFatFsTiva_waitForConnect)
                  0000dd06    00000032     usblib.lib : usbdma.obj (.text:iDMAUSBChannelDisable)
                  0000dd38    00000032     sysbios.aem4f : BIOS.obj (.text:ti_sysbios_hal_Hwi_initStack)
                  0000dd6a    00000006     driverlib.lib : gpio.obj (.text:GPIOPinRead)
                  0000dd70    00000032     sysbios.aem4f : BIOS.obj (.text:ti_sysbios_knl_Event_pendTimeout__I)
                  0000dda2    00000006     driverlib.lib : gpio.obj (.text:GPIOPinWrite)
                  0000dda8    00000032     sysbios.aem4f : BIOS.obj (.text:ti_sysbios_knl_Semaphore_pendTimeout__I)
                  0000ddda    00000030     usblib.lib : usbdma.obj (.text:DMAUSBIntHandler)
                  0000de0a    00000002     --HOLE-- [fill = 0]
                  0000de0c    00000030     drivers_tivaware.aem4f : GPIOTiva.oem4f (.text:GPIO_enableInt)
                  0000de3c    00000030                            : GPIOTiva.oem4f (.text:GPIO_read)
                  0000de6c    00000030     usblib.lib : usbtick.obj (.text:InternalUSBTickInit)
                  0000de9c    00000030     drivers_tivaware.aem4f : PWMTiva.oem4f (.text:PWMTiva_init)
                  0000decc    00000030     usblib.lib : usbdenum.obj (.text:USBDGetConfiguration)
                  0000defc    00000030     driverlib.lib : usb.obj (.text:USBEndpointDataPut)
                  0000df2c    00000030     usblib.lib : usbhmsc.obj (.text:USBHMSCBlockRead)
                  0000df5c    00000030                : usbhmsc.obj (.text:USBHMSCBlockWrite)
                  0000df8c    00000030                : usbhmsc.obj (.text:USBHMSCClose)
                  0000dfbc    00000030     FestoStation_pem4f.oem4f (.text:ti_sysbios_gates_GateHwi_Object__create__S)
                  0000dfec    00000030     FestoStation_pem4f.oem4f (.text:ti_sysbios_gates_GateMutex_Object__create__S)
                  0000e01c    00000030     FestoStation_pem4f.oem4f (.text:ti_sysbios_heaps_HeapMem_Object__create__S)
                  0000e04c    00000030     FestoStation_pem4f.oem4f (.text:ti_sysbios_knl_Semaphore_construct)
                  0000e07c    00000030     FestoStation_pem4f.oem4f (.text:ti_uia_loggers_LoggerStopMode_Object__create__S)
                  0000e0ac    00000030     ti.targets.arm.rtsarm.aem4f : SysMin.oem4f (.text:xdc_runtime_SysMin_abort__E)
                  0000e0dc    00000030                                 : System.oem4f (.text:xdc_runtime_System_processAtExit__E)
                  0000e10c    0000002e     grlib.lib : string.obj (.text:GrStringNextCharGet)
                  0000e13a    0000002e     driverlib.lib : usb.obj (.text:USBEndpointDataSend)
                  0000e168    0000002e                   : usb.obj (.text:USBHostHubAddrSet)
                  0000e196    00000002     --HOLE-- [fill = 0]
                  0000e198    0000002c     usblib.lib : usbhostenum.obj (.text:ConfigDescFree)
                  0000e1c4    0000002c                : usbhostenum.obj (.text:FIFOFree)
                  0000e1f0    0000002c     grlib.lib : string.obj (.text:GrFontBaselineGet)
                  0000e21c    0000002c     usblib.lib : usbhostenum.obj (.text:InternalUSBHCDSendEvent)
                  0000e248    0000002c     drivers_tivaware.aem4f : SDSPITiva.oem4f (.text:SDSPITiva_close)
                  0000e274    0000002c     usblib.lib : usbdesc.obj (.text:USBDescGet)
                  0000e2a0    0000002c                : usbdesc.obj (.text:USBDescGetAlternateInterface)
                  0000e2cc    0000002c     ti.sysbios.fatfs.aem4f : diskio.oem4f (.text:disk_register)
                  0000e2f8    0000002c     FestoStation_pem4f.oem4f (.text:ti_sysbios_BIOS_atExitFunc__I)
                  0000e324    00000004     FestoStation_pem4f.oem4f (.text:xdc_runtime_System_Module_GateProxy_leave__E)
                  0000e328    0000002c     sysbios.aem4f : BIOS.obj (.text:ti_sysbios_family_arm_m3_Hwi_Instance_finalize__E)
                  0000e354    0000002c     FestoStation_pem4f.oem4f (.text:ti_sysbios_gates_GateMutex_construct)
                  0000e380    0000002c     FestoStation_pem4f.oem4f (.text:ti_sysbios_knl_Clock_doTick__I)
                  0000e3ac    0000002c     FestoStation_pem4f.oem4f (.text:ti_sysbios_knl_Queue_construct)
                  0000e3d8    0000002c     driverlib.lib : udma.obj (.text:uDMAChannelAssign)
                  0000e404    0000002c     usblib.lib : usbdma.obj (.text:uDMAUSBIntStatus)
                  0000e430    0000002c     ti.targets.arm.rtsarm.aem4f : Text.oem4f (.text:xdc_runtime_Text_cordText__E)
                  0000e45c    0000002a     driverlib.lib : gpio.obj (.text:GPIODirModeSet)
                  0000e486    0000002a     usblib.lib : usbdcdesc.obj (.text:USBDCDConfigDescGetNum)
                  0000e4b0    0000002a     ti.targets.arm.rtsarm.aem4f : System.oem4f (.text:xdc_runtime_System_putchar__I)
                  0000e4da    00000002     --HOLE-- [fill = 0]
                  0000e4dc    00000028     drivers_tivaware.aem4f : EMACSnow.oem4f (.text:EMACSnow_isLinkUp)
                  0000e504    00000028     usblib.lib : usbdenum.obj (.text:USBDSetAddress)
                  0000e52c    00000028                : usbdesc.obj (.text:USBDescGetNum)
                  0000e554    00000028     driverlib.lib : usb.obj (.text:USBHostEndpointStatusClear)
                  0000e57c    00000028                   : usb.obj (.text:USBIntEnableControl)
                  0000e5a4    00000028     drivers_tivaware.aem4f : USBMSCHFatFsTiva.oem4f (.text:USBMSCHFatFsTiva_cbMSCHandler)
                  0000e5cc    00000028                            : USBMSCHFatFsTiva.oem4f (.text:USBMSCHFatFsTiva_serviceUSBHost)
                  0000e5f4    00000028     ti.sysbios.fatfs.aem4f : diskio.oem4f (.text:disk_unregister)
                  0000e61c    00000004     ti.targets.arm.rtsarm.aem4f : System.oem4f (.text:xdc_runtime_System_aprintf_va__F)
                  0000e620    00000028     sysbios.aem4f : BIOS.obj (.text:ti_sysbios_knl_Semaphore_Instance_finalize__E)
                  0000e648    00000028     driverlib.lib : udma.obj (.text:uDMAChannelModeGet)
                  0000e670    00000026                   : emac.obj (.text:EMACPHYRead)
                  0000e696    00000026     grlib.lib : string.obj (.text:GrFontInfoGet)
                  0000e6bc    00000026     driverlib.lib : usb.obj (.text:USBEndpointDataToggleClear)
                  0000e6e2    00000026                   : usb.obj (.text:USBHostSpeedGet)
                  0000e708    00000026     sysbios.aem4f : m3_Hwi_asm.obj (.text:ti_sysbios_family_arm_m3_Hwi_pendSV__I)
                  0000e72e    00000026     ti.targets.arm.rtsarm.aem4f : System.oem4f (.text:xdc_runtime_System_avprintf__E)
                  0000e754    00000024     driverlib.lib : usb.obj (.text:USBDevEndpointDataAck)
                  0000e778    00000024                   : usb.obj (.text:USBEndpointDMADisable)
                  0000e79c    00000024                   : usb.obj (.text:USBEndpointDMAEnable)
                  0000e7c0    00000024     drivers_tivaware.aem4f : USBMSCHFatFsTiva.oem4f (.text:USBMSCHFatFsTiva_usbHCDEvents)
                  0000e7e4    00000024     FestoStation_pem4f.oem4f (.text:ti_sysbios_BIOS_errorRaiseHook__I)
                  0000e808    00000024     FestoStation_pem4f.oem4f (.text:ti_sysbios_BIOS_registerRTSLock__I)
                  0000e82c    00000024     FestoStation_pem4f.oem4f (.text:ti_sysbios_BIOS_removeRTSLock__I)
                  0000e850    00000024     FestoStation_pem4f.oem4f (.text:ti_sysbios_gates_GateMutex_Object__delete__S)
                  0000e874    00000004     ti.targets.arm.rtsarm.aem4f : System.oem4f (.text:xdc_runtime_System_printf_va__F)
                  0000e878    00000024     sysbios.aem4f : BIOS.obj (.text:ti_sysbios_knl_Clock_Module_startup__E)
                  0000e89c    00000024     FestoStation_pem4f.oem4f (.text:ti_sysbios_knl_Semaphore_Object__delete__S)
                  0000e8c0    00000024     sysbios.aem4f : BIOS.obj (.text:ti_sysbios_knl_Task_restore__E)
                  0000e8e4    00000024     driverlib.lib : udma.obj (.text:uDMAChannelControlSet)
                  0000e908    00000024     ti.targets.arm.rtsarm.aem4f : System.oem4f (.text:xdc_runtime_System_vprintf__E)
                  0000e92c    00000022     grlib.lib : string.obj (.text:GrFontGlyphDataGet)
                  0000e94e    00000022     driverlib.lib : lcd.obj (.text:LCDModeSet)
                  0000e970    00000022                   : pwm.obj (.text:PWMGenConfigure)
                  0000e992    00000022     drivers_tivaware.aem4f : PWMTiva.oem4f (.text:PWMTiva_getPeriodCounts)
                  0000e9b4    00000004     --HOLE-- [fill = 0]
                  0000e9b8    00000022     sysbios.aem4f : BIOS.obj (.text:ti_sysbios_family_arm_lm4_Timer_write__I)
                  0000e9da    00000022     usblib.lib : usbdma.obj (.text:uDMAUSBChannelStatus)
                  0000e9fc    00000022     FestoStation_pem4f.oem4f (.text:xdc_runtime_SysMin_output__I)
                  0000ea1e    00000002     --HOLE-- [fill = 0]
                  0000ea20    00000020     drivers_tivaware.aem4f : GPIOTiva.oem4f (.text:GPIO_clearInt)
                  0000ea40    00000020     usblib.lib : usbdconfig.obj (.text:GetEndpointFIFOSize)
                  0000ea60    00000020                : usbhhub.obj (.text:HubDriverDeviceConnect)
                  0000ea80    00000020                : usbhhub.obj (.text:HubDriverDeviceReset)
                  0000eaa0    00000020     driverlib.lib : usb.obj (.text:USBHostEndpointDataAck)
                  0000eac0    00000020     usblib.lib : usbmode.obj (.text:USBStackModeSet)
                  0000eae0    00000020     Boot.aem4f : Boot_sysctl.oem4f (.text:_SysCtlMemTimingGet)
                  0000eb00    00000020     FestoStation_pem4f.oem4f (.text:ti_sysbios_BIOS_rtsLock__I)
                  0000eb20    00000020     FestoStation_pem4f.oem4f (.text:ti_sysbios_BIOS_startFunc__I)
                  0000eb40    00000020     sysbios.aem4f : BIOS.obj (.text:ti_sysbios_family_arm_m3_Hwi_clearInterrupt__E)
                  0000eb60    00000020                   : m3_Hwi_asm.obj (.text:ti_sysbios_family_arm_m3_Hwi_excHandlerAsm__I)
                  0000eb80    00000020                   : BIOS.obj (.text:ti_sysbios_family_arm_m3_Hwi_excHandler__I)
                  0000eba0    00000020     FestoStation_pem4f.oem4f (.text:ti_sysbios_gates_GateHwi_Object__delete__S)
                  0000ebc0    00000020     FestoStation_pem4f.oem4f (.text:ti_sysbios_gates_GateMutex_Object__destruct__S)
                  0000ebe0    00000020     FestoStation_pem4f.oem4f (.text:ti_sysbios_heaps_HeapMem_Object__delete__S)
                  0000ec00    00000020     FestoStation_pem4f.oem4f (.text:ti_sysbios_knl_Clock_Object__destruct__S)
                  0000ec20    00000020     sysbios.aem4f : BIOS.obj (.text:ti_sysbios_knl_Idle_run__E)
                  0000ec40    00000020     FestoStation_pem4f.oem4f (.text:ti_sysbios_knl_Semaphore_Object__destruct__S)
                  0000ec60    00000020     FestoStation_pem4f.oem4f (.text:ti_uia_loggers_LoggerStopMode_Object__delete__S)
                  0000ec80    00000020     ti.targets.arm.rtsarm.aem4f : Registry.oem4f (.text:xdc_runtime_Registry_findById__E)
                  0000eca0    00000020                                 : SysMin.oem4f (.text:xdc_runtime_SysMin_Module_startup__E)
                  0000ecc0    0000001e     grlib.lib : string.obj (.text:GrFontCodepageGet)
                  0000ecde    0000001e     driverlib.lib : pwm.obj (.text:PWMPulseWidthSet)
                  0000ecfc    0000001e     drivers_tivaware.aem4f : PWMTiva.oem4f (.text:PWMTiva_getPeriodMicroSecs)
                  0000ed1a    0000001e     usblib.lib : usbdesc.obj (.text:USBDescGetInterface)
                  0000ed38    0000001e     driverlib.lib : usb.obj (.text:USBULPIRegRead)
                  0000ed56    0000001e                   : usb.obj (.text:USBULPIRegWrite)
                  0000ed74    0000001c     usblib.lib : usbmode.obj (.text:OTGDeviceDisconnect)
                  0000ed90    0000001c     driverlib.lib : uart.obj (.text:UARTDisable)
                  0000edac    0000001c     usblib.lib : usbdcdesc.obj (.text:USBDCDConfigGetInterface)
                  0000edc8    0000001c                : usbdenum.obj (.text:USBDCDStallEP0)
                  0000ede4    0000001c     driverlib.lib : usb.obj (.text:USBEndpointDataAvail)
                  0000ee00    0000001c                   : usb.obj (.text:USBHostPwrConfig)
                  0000ee1c    0000001c     drivers_tivaware.aem4f : USBMSCHFatFsTiva.oem4f (.text:USBMSCHFatFsTiva_diskIOctl)
                  0000ee38    0000001c                            : WatchdogTiva.oem4f (.text:WatchdogTiva_setReload)
                  0000ee54    0000001c                            : GPIOTiva.oem4f (.text:getGpioIntIndex)
                  0000ee70    0000001c     FestoStation_pem4f.oem4f (.text:ti_sysbios_family_arm_m3_Hwi_Object__destruct__S)
                  0000ee8c    00000004     --HOLE-- [fill = 0]
                  0000ee90    0000001c     sysbios.aem4f : BIOS.obj (.text:ti_sysbios_family_arm_m3_Hwi_doTaskRestore__I)
                  0000eeac    00000004     --HOLE-- [fill = 0]
                  0000eeb0    0000001c                   : BIOS.obj (.text:ti_sysbios_gates_GateMutex_Instance_init__E)
                  0000eecc    0000001c     FestoStation_pem4f.oem4f (.text:ti_sysbios_knl_Queue_Object__destruct__S)
                  0000eee8    0000001c     FestoStation_pem4f.oem4f (.text:ti_sysbios_knl_Task_Object__destruct__S)
                  0000ef04    00000004     --HOLE-- [fill = 0]
                  0000ef08    0000001c     sysbios.aem4f : BIOS.obj (.text:ti_sysbios_knl_Task_enter__I)
                  0000ef24    0000001c     ti.uia.loggers.aem4f : LoggerStopMode.oem4f (.text:ti_uia_loggers_LoggerStopMode_Instance_init__E)
                  0000ef40    0000001c     ti.targets.arm.rtsarm.aem4f : Error.oem4f (.text:xdc_runtime_Error_raiseX__E)
                  0000ef5c    0000001c                                 : Memory.oem4f (.text:xdc_runtime_Memory_valloc__E)
                  0000ef78    0000001c                                 : SysMin.oem4f (.text:xdc_runtime_SysMin_exit__E)
                  0000ef94    0000001c                                 : System.oem4f (.text:xdc_runtime_System_abort__E)
                  0000efb0    0000001a     driverlib.lib : usb.obj (.text:USBEndpointDMAChannel)
                  0000efca    0000001a                   : usb.obj (.text:USBOTGSessionRequest)
                  0000efe4    0000001a     ti.sysbios.fatfs.aem4f : syncsysbios.oem4f (.text:ff_cre_syncobj)
                  0000effe    00000002     --HOLE-- [fill = 0]
                  0000f000    0000001a     sysbios.aem4f : BIOS.obj (.text:ti_sysbios_knl_Task_sleepTimeout__I)
                  0000f01a    0000001a     FestoStation_pem4f.oem4f (.text:xdc_runtime_System_aprintf__E)
                  0000f034    0000001a     FestoStation_pem4f.oem4f (.text:xdc_runtime_System_printf__E)
                  0000f04e    00000018     driverlib.lib : gpio.obj (.text:GPIOPinTypeGPIOOutput)
                  0000f066    00000002     --HOLE-- [fill = 0]
                  0000f068    00000018     drivers_tivaware.aem4f : UART.oem4f (.text:UART_Params_init)
                  0000f080    00000018                            : UART.oem4f (.text:UART_open)
                  0000f098    00000018     usblib.lib : usbdcdesc.obj (.text:USBDCDConfigDescGetSize)
                  0000f0b0    00000018                : usbdenum.obj (.text:USBDSetDescriptor)
                  0000f0c8    00000018                : usbdenum.obj (.text:USBDSyncFrame)
                  0000f0e0    00000018                : usbhhub.obj (.text:USBHHubEnumerationComplete)
                  0000f0f8    00000018                : usbhhub.obj (.text:USBHHubEnumerationError)
                  0000f110    00000018     driverlib.lib : usb.obj (.text:USBHostRequestINClear)
                  0000f128    00000018     drivers_tivaware.aem4f : USBMSCHFatFsTiva.oem4f (.text:USBMSCHFatFsTiva_diskStatus)
                  0000f140    00000018     rtsv7M4_T_le_v4SPD16_eabi.lib : args_main.obj (.text)
                  0000f158    00000018     FestoStation_pem4f.oem4f (.text:ti_sysbios_BIOS_rtsUnlock__I)
                  0000f170    00000018     FestoStation_pem4f.oem4f (.text:ti_sysbios_family_arm_lm4_Timer_Module__startupDone__F)
                  0000f188    00000018     FestoStation_pem4f.oem4f (.text:ti_sysbios_family_arm_m3_Hwi_Handle__label__S)
                  0000f1a0    00000018     FestoStation_pem4f.oem4f (.text:ti_sysbios_family_arm_m3_Hwi_Module__startupDone__F)
                  0000f1b8    00000018     sysbios.aem4f : m3_TaskSupport_asm.obj (.text:ti_sysbios_family_arm_m3_TaskSupport_swap__E)
                  0000f1d0    00000018     FestoStation_pem4f.oem4f (.text:ti_sysbios_gates_GateHwi_Handle__label__S)
                  0000f1e8    00000018     FestoStation_pem4f.oem4f (.text:ti_sysbios_gates_GateMutex_Handle__label__S)
                  0000f200    00000018     sysbios.aem4f : BIOS.obj (.text:ti_sysbios_gates_GateMutex_leave__E)
                  0000f218    00000018     FestoStation_pem4f.oem4f (.text:ti_sysbios_heaps_HeapMem_Handle__label__S)
                  0000f230    00000018     FestoStation_pem4f.oem4f (.text:ti_sysbios_knl_Task_Handle__label__S)
                  0000f248    00000018     FestoStation_pem4f.oem4f (.text:ti_uia_loggers_LoggerStopMode_Handle__label__S)
                  0000f260    00000018     driverlib.lib : udma.obj (.text:uDMAChannelDisable)
                  0000f278    00000018                   : udma.obj (.text:uDMAChannelEnable)
                  0000f290    00000018                   : udma.obj (.text:uDMAChannelIsEnabled)
                  0000f2a8    00000018     ti.targets.arm.rtsarm.aem4f : Error.oem4f (.text:xdc_runtime_Error_check__E)
                  0000f2c0    00000018                                 : System.oem4f (.text:xdc_runtime_System_exit__E)
                  0000f2d8    00000018                                 : Text.oem4f (.text:xdc_runtime_Text_ropeText__E)
                  0000f2f0    00000016     grlib.lib : string.obj (.text:GrStringDraw)
                  0000f306    00000016     driverlib.lib : i2c.obj (.text:I2CMasterErr)
                  0000f31c    00000016     usblib.lib : usbdesc.obj (.text:USBDescGetInterfaceEndpoint)
                  0000f332    00000016     driverlib.lib : usb.obj (.text:USBHostAddrSet)
                  0000f348    00000016     FestoStation_pem4f.oem4f (.text:ti_sysbios_BIOS_exitFunc__I)
                  0000f35e    00000016     ti.uia.loggers.aem4f : LoggerStopMode.oem4f (.text:ti_uia_loggers_LoggerStopMode_disable__E)
                  0000f374    00000016                          : LoggerStopMode.oem4f (.text:ti_uia_loggers_LoggerStopMode_enable__E)
                  0000f38a    00000002     --HOLE-- [fill = 0]
                  0000f38c    00000014     driverlib.lib : flash.obj (.text:FlashUserGet)
                  0000f3a0    00000014                   : pwm.obj (.text:PWMClockSet)
                  0000f3b4    00000014                   : sysctl.obj (.text:SysCtlPWMClockSet)
                  0000f3c8    00000014                   : sysctl.obj (.text:SysCtlUSBPLLEnable)
                  0000f3dc    00000014                   : uart.obj (.text:UARTEnable)
                  0000f3f0    00000014                   : usb.obj (.text:USBDMAChannelConfigSet)
                  0000f404    00000014     usblib.lib : usbhmsc.obj (.text:USBHMSCDriveOpen)
                  0000f418    00000014     driverlib.lib : usb.obj (.text:USBHostReset)
                  0000f42c    00000014                   : usb.obj (.text:USBHostResume)
                  0000f440    00000014     usblib.lib : usbhhub.obj (.text:USBHubPortSpeedSet)
                  0000f454    00000014     driverlib.lib : usb.obj (.text:USBIntEnableEndpoint)
                  0000f468    00000014                   : usb.obj (.text:_USBIndexWrite)
                  0000f47c    00000014     rtsv7M4_T_le_v4SPD16_eabi.lib : _lock.obj (.text)
                  0000f490    00000014                                   : strcpy.obj (.text)
                  0000f4a4    00000014                                   : strlen.obj (.text)
                  0000f4b8    00000014     FestoStation_pem4f.oem4f (.text:ti_sysbios_family_arm_m3_Hwi_Object__get__S)
                  0000f4cc    00000004     --HOLE-- [fill = 0]
                  0000f4d0    00000014     sysbios.aem4f : BIOS.obj (.text:ti_sysbios_family_arm_m3_Hwi_switchFromBootStack__E)
                  0000f4e4    00000014     FestoStation_pem4f.oem4f (.text:ti_sysbios_heaps_HeapMem_Object__get__S)
                  0000f4f8    00000014     FestoStation_pem4f.oem4f (.text:ti_sysbios_knl_Mailbox_Object__get__S)
                  0000f50c    00000012     driverlib.lib : gpio.obj (.text:GPIOPinTypeEthernetLED)
                  0000f51e    00000012                   : gpio.obj (.text:GPIOPinTypeGPIOInput)
                  0000f530    00000012                   : gpio.obj (.text:GPIOPinTypeI2C)
                  0000f542    00000012                   : gpio.obj (.text:GPIOPinTypeI2CSCL)
                  0000f554    00000012                   : gpio.obj (.text:GPIOPinTypePWM)
                  0000f566    00000012                   : gpio.obj (.text:GPIOPinTypeSSI)
                  0000f578    00000012                   : gpio.obj (.text:GPIOPinTypeUART)
                  0000f58a    00000012                   : gpio.obj (.text:GPIOPinTypeUSBAnalog)
                  0000f59c    00000012                   : gpio.obj (.text:GPIOPinTypeUSBDigital)
                  0000f5ae    00000012                   : pwm.obj (.text:PWMGenPeriodGet)
                  0000f5c0    00000012                   : pwm.obj (.text:PWMOutputInvert)
                  0000f5d2    00000012                   : pwm.obj (.text:PWMOutputState)
                  0000f5e4    00000012     drivers_tivaware.aem4f : RingBuf.oem4f (.text:RingBuf_construct)
                  0000f5f6    00000012                            : SDSPITiva.oem4f (.text:SDSPITiva_init)
                  0000f608    00000012     driverlib.lib : ssi.obj (.text:SSIDataGetNonBlocking)
                  0000f61a    00000012     usblib.lib : usbhostenum.obj (.text:SendUnknownConnect)
                  0000f62c    00000012     driverlib.lib : usb.obj (.text:USBDMAChannelDisable)
                  0000f63e    00000012                   : usb.obj (.text:USBDMAChannelEnable)
                  0000f650    00000012                   : usb.obj (.text:USBDMAChannelIntDisable)
                  0000f662    00000012                   : usb.obj (.text:USBDMAChannelIntEnable)
                  0000f674    00000012                   : usb.obj (.text:USBHostLPMConfig)
                  0000f686    00000012                   : usb.obj (.text:USBHostRequestIN)
                  0000f698    00000012     sysbios.aem4f : BIOS.obj (.text:ti_sysbios_hal_Hwi_Module_startup__E)
                  0000f6aa    00000006     grlib.lib : string.obj (.text:GrContextFontSet)
                  0000f6b0    00000012     sysbios.aem4f : BIOS.obj (.text:ti_sysbios_knl_Event_sync__E)
                  0000f6c2    00000012     FestoStation_pem4f.oem4f (.text:xdc_runtime_Startup_exec__I)
                  0000f6d4    00000010     FestoStation_pem4f.oem4f (.text:.bootCodeSection:ti_catalog_arm_cortexm4_tiva_ce_Boot_init__I)
                  0000f6e4    00000010     driverlib.lib : pwm.obj (.text:PWMGenPeriodSet)
                  0000f6f4    00000010     drivers_tivaware.aem4f : SDSPITiva.oem4f (.text:SDSPITiva_diskStatus)
                  0000f704    00000010     driverlib.lib : usb.obj (.text:USBEndpointStatus)
                  0000f714    00000010     usblib.lib : usbhostenum.obj (.text:USBHCDPowerAutomatic)
                  0000f724    00000010                : usbhostenum.obj (.text:USBHCDRegisterDrivers)
                  0000f734    00000010     drivers_tivaware.aem4f : UARTTiva.oem4f (.text:readBlockingTimeout)
                  0000f744    00000004     --HOLE-- [fill = 0]
                  0000f748    00000010     sysbios.aem4f : BIOS.obj (.text:ti_sysbios_BIOS_getCpuFreq__E)
                  0000f758    00000010                   : BIOS.obj (.text:ti_sysbios_BIOS_setThreadType__E)
                  0000f768    00000010                   : BIOS.obj (.text:ti_sysbios_BIOS_start__E)
                  0000f778    00000010                   : BIOS.obj (.text:ti_sysbios_family_arm_lm4_TimestampProvider_rolloverFunc__E)
                  0000f788    00000010                   : m3_TaskSupport_asm.obj (.text:ti_sysbios_family_arm_m3_TaskSupport_glue)
                  0000f798    00000010                   : BIOS.obj (.text:ti_sysbios_gates_GateMutex_Instance_finalize__E)
                  0000f7a8    00000010     FestoStation_pem4f.oem4f (.text:ti_sysbios_knl_Task_Object__get__S)
                  0000f7b8    00000010     sysbios.aem4f : BIOS.obj (.text:ti_sysbios_knl_Task_disable__E)
                  0000f7c8    00000010     FestoStation_pem4f.oem4f (.text:ti_uia_loggers_LoggerStopMode_Object__get__S)
                  0000f7d8    00000010     ti.uia.loggers.aem4f : LoggerStopMode.oem4f (.text:ti_uia_loggers_LoggerStopMode_isEmpty__E)
                  0000f7e8    00000010     driverlib.lib : udma.obj (.text:uDMAEnable)
                  0000f7f8    00000010     ti.targets.arm.rtsarm.aem4f : Gate.oem4f (.text:xdc_runtime_Gate_leaveSystem__E)
                  0000f808    00000010                                 : Memory.oem4f (.text:xdc_runtime_Memory_free__E)
                  0000f818    00000010                                 : SysMin.oem4f (.text:xdc_runtime_SysMin_ready__E)
                  0000f828    00000010                                 : System.oem4f (.text:xdc_runtime_System_vsnprintf__E)
                  0000f838    0000000e     usblib.lib : usbdma.obj (.text:DMAUSBIntStatusClear)
                  0000f846    0000000e     driverlib.lib : gpio.obj (.text:GPIOIntStatus)
                  0000f854    0000000e     grlib.lib : image.obj (.text:GrImageDraw)
                  0000f862    0000000e     driverlib.lib : uart.obj (.text:UARTCharGetNonBlocking)
                  0000f870    0000000e                   : uart.obj (.text:UARTCharPutNonBlocking)
                  0000f87e    0000000e                   : usb.obj (.text:USBDMAChannelStatus)
                  0000f88c    0000000e                   : usb.obj (.text:USBDevLPMEnable)
                  0000f89a    0000000e     usblib.lib : usbhmsc.obj (.text:USBHMSCDriveClose)
                  0000f8a8    0000000e     driverlib.lib : usb.obj (.text:USBHostPwrDisable)
                  0000f8b6    0000000e                   : usb.obj (.text:USBHostPwrEnable)
                  0000f8c4    0000000e     drivers_tivaware.aem4f : USBMSCHFatFsTiva.oem4f (.text:USBMSCHFatFsTiva_init)
                  0000f8d2    0000000e     driverlib.lib : usb.obj (.text:USBULPIDisable)
                  0000f8e0    0000000e                   : usb.obj (.text:USBULPIEnable)
                  0000f8ee    0000000e                   : watchdog.obj (.text:WatchdogStallDisable)
                  0000f8fc    0000000e                   : watchdog.obj (.text:WatchdogStallEnable)
                  0000f90a    0000000e     rtsv7M4_T_le_v4SPD16_eabi.lib : copy_decompress_none.obj (.text:decompress:none)
                  0000f918    0000000e     ti.sysbios.fatfs.aem4f : syncsysbios.oem4f (.text:ff_del_syncobj)
                  0000f926    00000002     --HOLE-- [fill = 0]
                  0000f928    0000000e     sysbios.aem4f : BIOS.obj (.text:ti_sysbios_knl_Idle_loop__E)
                  0000f936    00000002     --HOLE-- [fill = 0]
                  0000f938    0000000e                   : BIOS.obj (.text:ti_sysbios_knl_Queue_empty__E)
                  0000f946    00000002     --HOLE-- [fill = 0]
                  0000f948    0000000c     drivers_tivaware.aem4f : EMACSnow.oem4f (.text:EMACSnow_init)
                  0000f954    0000000c     driverlib.lib : gpio.obj (.text:GPIOIntEnable)
                  0000f960    0000000c                   : lcd.obj (.text:LCDIDDCommandWrite)
                  0000f96c    0000000c                   : lcd.obj (.text:LCDIDDDataWrite)
                  0000f978    0000000c                   : pwm.obj (.text:PWMGenDisable)
                  0000f984    0000000c                   : pwm.obj (.text:PWMGenEnable)
                  0000f990    0000000c     drivers_tivaware.aem4f : RingBuf.oem4f (.text:RingBuf_peek)
                  0000f99c    0000000c     driverlib.lib : ssi.obj (.text:SSIDataGet)
                  0000f9a8    0000000c                   : uart.obj (.text:UARTFlowControlSet)
                  0000f9b4    0000000c     drivers_tivaware.aem4f : UARTTiva.oem4f (.text:UARTTiva_init)
                  0000f9c0    0000000c     driverlib.lib : usb.obj (.text:USBEndpointPacketCountSet)
                  0000f9cc    0000000c     usblib.lib : usbhostenum.obj (.text:USBHCDHubDeviceDisconnected)
                  0000f9d8    0000000c                : usbhostenum.obj (.text:USBHCDPowerConfigInit)
                  0000f9e4    0000000c     driverlib.lib : usb.obj (.text:USBLPMIntEnable)
                  0000f9f0    0000000c                   : watchdog.obj (.text:WatchdogUnlock)
                  0000f9fc    0000000c     rtsv7M4_T_le_v4SPD16_eabi.lib : copy_zero_init.obj (.text:decompress:ZI)
                  0000fa08    0000000c     sysbios.aem4f : BIOS.obj (.text:ti_sysbios_family_arm_lm4_Timer_getMaxTicks__E)
                  0000fa14    00000004     --HOLE-- [fill = 0]
                  0000fa18    0000000c                   : BIOS.obj (.text:ti_sysbios_family_arm_lm4_TimestampProvider_startTimer__E)
                  0000fa24    0000000c     FestoStation_pem4f.oem4f (.text:ti_sysbios_family_arm_m3_Hwi_Params__init__S)
                  0000fa30    0000000c     sysbios.aem4f : BIOS.obj (.text:ti_sysbios_family_arm_m3_Hwi_disableFxn__E)
                  0000fa3c    00000004     --HOLE-- [fill = 0]
                  0000fa40    0000000c                   : BIOS.obj (.text:ti_sysbios_family_arm_m3_TaskSupport_checkStack__E)
                  0000fa4c    00000004     --HOLE-- [fill = 0]
                  0000fa50    0000000c                   : BIOS.obj (.text:ti_sysbios_family_arm_m3_TaskSupport_getStackAlignment__E)
                  0000fa5c    00000004     --HOLE-- [fill = 0]
                  0000fa60    0000000c                   : BIOS.obj (.text:ti_sysbios_gates_GateHwi_enter__E)
                  0000fa6c    0000000c     FestoStation_pem4f.oem4f (.text:ti_sysbios_gates_GateMutex_Params__init__S)
                  0000fa78    0000000c     FestoStation_pem4f.oem4f (.text:ti_sysbios_knl_Clock_Params__init__S)
                  0000fa84    0000000c     FestoStation_pem4f.oem4f (.text:ti_sysbios_knl_Queue_Object__get__S)
                  0000fa90    0000000c     FestoStation_pem4f.oem4f (.text:ti_sysbios_knl_Semaphore_Params__init__S)
                  0000fa9c    0000000c     FestoStation_pem4f.oem4f (.text:ti_sysbios_knl_Task_Params__init__S)
                  0000faa8    0000000c     driverlib.lib : udma.obj (.text:uDMAControlBaseSet)
                  0000fab4    0000000c                   : udma.obj (.text:uDMAErrorStatusClear)
                  0000fac0    0000000c                   : udma.obj (.text:uDMAErrorStatusGet)
                  0000facc    0000000c                   : udma.obj (.text:uDMAIntStatus)
                  0000fad8    0000000c     ti.targets.arm.rtsarm.aem4f : Error.oem4f (.text:xdc_runtime_Error_init__E)
                  0000fae4    0000000c                                 : Gate.oem4f (.text:xdc_runtime_Gate_enterSystem__E)
                  0000faf0    0000000c                                 : Memory.oem4f (.text:xdc_runtime_Memory_calloc__E)
                  0000fafc    0000000c                                 : Memory.oem4f (.text:xdc_runtime_Memory_getMaxDefaultTypeAlign__E)
                  0000fb08    0000000a     driverlib.lib : i2c.obj (.text:I2CMasterDisable)
                  0000fb12    0000000a                   : i2c.obj (.text:I2CMasterEnable)
                  0000fb1c    0000000a     drivers_tivaware.aem4f : I2CTiva.oem4f (.text:I2CTiva_init)
                  0000fb26    0000000a                            : SPITivaDMA.oem4f (.text:SPITivaDMA_init)
                  0000fb30    0000000a     driverlib.lib : ssi.obj (.text:SSIDMADisable)
                  0000fb3a    0000000a                   : ssi.obj (.text:SSIDataPut)
                  0000fb44    0000000a                   : ssi.obj (.text:SSIDisable)
                  0000fb4e    0000000a                   : ssi.obj (.text:SSIEnable)
                  0000fb58    0000000a                   : ssi.obj (.text:SSIIntDisable)
                  0000fb62    0000000a                   : uart.obj (.text:UARTCharGet)
                  0000fb6c    0000000a                   : uart.obj (.text:UARTCharPut)
                  0000fb76    0000000a                   : uart.obj (.text:UARTIntDisable)
                  0000fb80    0000000a                   : uart.obj (.text:UARTIntStatus)
                  0000fb8a    0000000a     drivers_tivaware.aem4f : UART.oem4f (.text:UART_read)
                  0000fb94    0000000a                            : UART.oem4f (.text:UART_write)
                  0000fb9e    0000000a     driverlib.lib : usb.obj (.text:USBClockEnable)
                  0000fba8    0000000a                   : usb.obj (.text:USBControllerVersion)
                  0000fbb2    0000000a                   : usb.obj (.text:USBDMAChannelAddressSet)
                  0000fbbc    0000000a                   : usb.obj (.text:USBDMAChannelCountSet)
                  0000fbc6    0000000a                   : usb.obj (.text:USBDevDisconnect)
                  0000fbd0    0000000a                   : usb.obj (.text:USBHostSuspend)
                  0000fbda    0000000a                   : usb.obj (.text:USBIntStatusEndpoint)
                  0000fbe4    0000000a     usblib.lib : usbdma.obj (.text:USBLibDMAAddrGet)
                  0000fbee    0000000a     driverlib.lib : usb.obj (.text:USBModeGet)
                  0000fbf8    0000000a                   : usb.obj (.text:USBNumEndpointsGet)
                  0000fc02    0000000a                   : watchdog.obj (.text:WatchdogEnable)
                  0000fc0c    0000000a                   : watchdog.obj (.text:WatchdogResetDisable)
                  0000fc16    0000000a                   : watchdog.obj (.text:WatchdogResetEnable)
                  0000fc20    0000000a     FestoStation_pem4f.oem4f (.text:xdc_runtime_IHeap_alloc)
                  0000fc2a    0000000a     FestoStation_pem4f.oem4f (.text:xdc_runtime_IHeap_free)
                  0000fc34    0000000a     FestoStation_pem4f.oem4f (.text:xdc_runtime_Text_visitRope__I)
                  0000fc3e    00000008     grlib.lib : charmap.obj (.text:GrMapISO8859_1_Unicode)
                  0000fc46    00000008     driverlib.lib : i2c.obj (.text:I2CMasterIntClear)
                  0000fc4e    00000008                   : i2c.obj (.text:I2CMasterSlaveAddrSet)
                  0000fc56    00000008     drivers_tivaware.aem4f : I2CTiva.oem4f (.text:I2CTiva_blockingCallback)
                  0000fc5e    00000008     driverlib.lib : ssi.obj (.text:SSIDMAEnable)
                  0000fc66    00000008                   : ssi.obj (.text:SSIIntEnable)
                  0000fc6e    00000008                   : uart.obj (.text:UARTIntEnable)
                  0000fc76    00000008                   : usb.obj (.text:USBFIFOAddrGet)
                  0000fc7e    00000008                   : usb.obj (.text:USBHostMode)
                  0000fc86    00000008                   : usb.obj (.text:USBHostRequestStatus)
                  0000fc8e    00000008                   : usb.obj (.text:USBOTGMode)
                  0000fc96    00000008                   : watchdog.obj (.text:WatchdogLock)
                  0000fc9e    00000008     drivers_tivaware.aem4f : WatchdogTiva.oem4f (.text:WatchdogTiva_clear)
                  0000fca6    00000008                            : WatchdogTiva.oem4f (.text:WatchdogTiva_init)
                  0000fcae    00000008     usblib.lib : usbdma.obj (.text:iDMAUSBChannelIntDisable)
                  0000fcb6    00000008                : usbdma.obj (.text:iDMAUSBChannelIntEnable)
                  0000fcbe    00000008     drivers_tivaware.aem4f : UARTTiva.oem4f (.text:readSemCallback)
                  0000fcc6    00000008     sysbios.aem4f : BIOS.obj (.text:ti_sysbios_family_arm_lm4_Timer_masterDisable__I)
                  0000fcce    00000002     --HOLE-- [fill = 0]
                  0000fcd0    00000008                   : BIOS.obj (.text:ti_sysbios_family_arm_m3_Hwi_startup__E)
                  0000fcd8    00000008     drivers_tivaware.aem4f : UARTTiva.oem4f (.text:writeSemCallback)
                  0000fce0    00000006     driverlib.lib : i2c.obj (.text:I2CMasterIntDisable)
                  0000fce6    00000006                   : i2c.obj (.text:I2CMasterIntEnable)
                  0000fcec    00000006     drivers_tivaware.aem4f : I2CTiva.oem4f (.text:I2CTiva_control)
                  0000fcf2    00000006                            : SDSPITiva.oem4f (.text:SDSPITiva_control)
                  0000fcf8    00000006                            : SPITivaDMA.oem4f (.text:SPITivaDMA_control)
                  0000fcfe    00000006                            : SPITivaDMA.oem4f (.text:SPITivaDMA_transferCallback)
                  0000fd04    00000006     driverlib.lib : sysctl.obj (.text:SysCtlDelay)
                  0000fd0a    00000006                   : uart.obj (.text:UARTFIFOLevelSet)
                  0000fd10    00000006                   : usb.obj (.text:USBDMAChannelIntStatus)
                  0000fd16    00000006                   : usb.obj (.text:USBLPMIntStatus)
                  0000fd1c    00000006                   : watchdog.obj (.text:WatchdogIntClear)
                  0000fd22    00000006     drivers_tivaware.aem4f : WatchdogTiva.oem4f (.text:WatchdogTiva_control)
                  0000fd28    00000006     ti.targets.arm.rtsarm.aem4f : xdc_noinit.oem4f (.text:__xdc__init)
                  0000fd2e    00000006     rtsv7M4_T_le_v4SPD16_eabi.lib : copy_decompress_rle.obj (.text:decompress:rle24)
                  0000fd34    00000006     usblib.lib : usbdma.obj (.text:iDMAUSBIntStatus)
                  0000fd3a    00000006     ti.targets.arm.rtsarm.aem4f : System.oem4f (.text:xdc_runtime_System_Module_startup__E)
                  0000fd40    00000006     sysbios.aem4f : BIOS.obj (.text:ti_sysbios_family_arm_lm4_TimestampProvider_Module_startup__E)
                  0000fd46    00000002     --HOLE-- [fill = 0]
                  0000fd48    00000006                   : BIOS.obj (.text:ti_sysbios_family_arm_m3_Hwi_restoreFxn__E)
                  0000fd4e    00000002     --HOLE-- [fill = 0]
                  0000fd50    00000006                   : BIOS.obj (.text:ti_sysbios_gates_GateHwi_leave__E)
                  0000fd56    00000002     --HOLE-- [fill = 0]
                  0000fd58    00000006                   : BIOS.obj (.text:ti_sysbios_heaps_HeapMem_isBlocking__E)
                  0000fd5e    00000002     --HOLE-- [fill = 0]
                  0000fd60    00000006                   : BIOS.obj (.text:ti_sysbios_knl_Clock_stop__E)
                  0000fd66    00000002     --HOLE-- [fill = 0]
                  0000fd68    00000006                   : BIOS.obj (.text:ti_sysbios_knl_Queue_Instance_init__E)
                  0000fd6e    00000002     --HOLE-- [fill = 0]
                  0000fd70    00000004                   : BIOS.obj (.text:ti_sysbios_family_arm_lm4_Timer_getPeriod__E)
                  0000fd74    00000004     --HOLE-- [fill = 0]
                  0000fd78    00000004                   : BIOS.obj (.text:ti_sysbios_gates_GateHwi_query__E)
                  0000fd7c    00000004     --HOLE-- [fill = 0]
                  0000fd80    00000004                   : BIOS.obj (.text:ti_sysbios_gates_GateMutex_query__E)
                  0000fd84    00000004     --HOLE-- [fill = 0]
                  0000fd88    00000004                   : BIOS.obj (.text:ti_sysbios_knl_Task_startup__E)
                  0000fd8c    00000004     --HOLE-- [fill = 0]
                  0000fd90    00000002                   : BIOS.obj (.text:ti_sysbios_family_arm_m3_Hwi_doSwiRestore__I)
                  0000fd92    00000006     --HOLE-- [fill = 0]
                  0000fd98    00000002                   : BIOS.obj (.text:ti_sysbios_gates_GateHwi_Instance_init__E)

.const     0    0000fd9c    000065f8     
                  0000fd9c    00001da8     FestoStation_pem4f.oem4f (.const:xdc_runtime_Text_charTab__A)
                  00011b44    00001a46     frame.obj (.const:.string:g_pui8Top)
                  0001358a    00000786     frame.obj (.const:.string:g_pui8Bottom)
                  00013d10    00000782     grlib.lib : fontcmss18b.obj (.const:.string:g_pui8Cmss18bData)
                  00014492    00000546     frame.obj (.const:.string:g_pui8Left)
                  000149d8    00000546     frame.obj (.const:.string:g_pui8Right)
                  00014f1e    0000017c     frame.obj (.const:.string:g_pui8TopLeft)
                  0001509a    00000173     frame.obj (.const:.string:g_pui8TopRight)
                  0001520d    00000001     FestoStation_pem4f.oem4f (.const:xdc_runtime_Error_policy__C)
                  0001520e    00000002     FestoStation_pem4f.oem4f (.const:ti_catalog_arm_cortexm4_tiva_ce_Boot_Module__id__C)
                  00015210    00000120     Boot.aem4f : Boot_sysctl.oem4f (.const:g_pppui32XTALtoVCO)
                  00015330    000000d0     frame.obj (.const:.string:g_pui8BottomLeft)
                  00015400    000000c8     grlib.lib : fontcmss18b.obj (.const:g_sFontCmss18b)
                  000154c8    000000c4     frame.obj (.const:.string:g_pui8BottomRight)
                  0001558c    00000090     driverlib.lib : gpio.obj (.const:g_pui32GPIOBaseAddrs)
                  0001561c    00000078     DK_TM4C129X.obj (.const:spiTivaDMAHWAttrs)
                  00015694    00000070     driverlib.lib : interrupt.obj (.const)
                  00015704    0000006c     Boot.aem4f : Boot_sysctl.oem4f (.const:g_pui32Xtals)
                  00015770    00000064     drivers_tivaware.aem4f : SPITivaDMA.oem4f (.const)
                  000157d4    00000060     FestoStation_pem4f.oem4f (.const:ti_uia_loggers_LoggerStopMode_Module__FXNS__C)
                  00015834    00000054     drivers_tivaware.aem4f : GPIOTiva.oem4f (.const:.string)
                  00015888    0000004c                            : UARTTiva.oem4f (.const)
                  000158d4    00000048     FestoStation_pem4f.oem4f (.const:.string)
                  0001591c    00000048     drivers_tivaware.aem4f : GPIOTiva.oem4f (.const:gpioBaseAddresses)
                  00015964    0000003c     FestoStation_pem4f.oem4f (.const:ti_sysbios_knl_Task_Object__PARAMS__C)
                  000159a0    00000034     usblib.lib : usbdenum.obj (.const:g_psUSBDStdRequests)
                  000159d4    00000030     DK_TM4C129X.obj (.const:I2C_config)
                  00015a04    00000030     DK_TM4C129X.obj (.const:SPI_config)
                  00015a34    00000030     drivers_tivaware.aem4f : USBMSCHFatFsTiva.oem4f (.const)
                  00015a64    00000030     Boot.aem4f : Boot_sysctl.oem4f (.const:g_sXTALtoMEMTIM)
                  00015a94    00000030     FestoStation_pem4f.oem4f (.const:ti_sysbios_family_arm_m3_Hwi_Object__PARAMS__C)
                  00015ac4    00000028     drivers_tivaware.aem4f : UARTTiva.oem4f (.const:UARTTiva_fxnTable)
                  00015aec    00000028     kentec320x240x16_ssd2119.obj (.const:g_sKentec320x240x16_SSD2119)
                  00015b14    00000028     FestoStation_pem4f.oem4f (.const:ti_sysbios_heaps_HeapMem_Module__FXNS__C)
                  00015b3c    00000028     FestoStation_pem4f.oem4f (.const:ti_uia_loggers_LoggerStopMode_Object__PARAMS__C)
                  00015b64    00000028     FestoStation_pem4f.oem4f (.const:xdc_runtime_Startup_sfxnTab__A)
                  00015b8c    00000024     DK_TM4C129X.obj (.const:PWM_config)
                  00015bb0    00000024     drivers_tivaware.aem4f : UART.oem4f (.const:UART_defaultParams)
                  00015bd4    00000024     DK_TM4C129X.obj (.const:i2cTivaHWAttrs)
                  00015bf8    00000024     DK_TM4C129X.obj (.const:sdspiTivaHWattrs)
                  00015c1c    00000024     FestoStation_pem4f.oem4f (.const:ti_sysbios_gates_GateHwi_Module__FXNS__C)
                  00015c40    00000024     FestoStation_pem4f.oem4f (.const:ti_sysbios_gates_GateMutex_Module__FXNS__C)
                  00015c64    00000024     FestoStation_pem4f.oem4f (.const:ti_sysbios_heaps_HeapMem_Object__PARAMS__C)
                  00015c88    00000024     FestoStation_pem4f.oem4f (.const:ti_sysbios_knl_Clock_Object__PARAMS__C)
                  00015cac    00000024     FestoStation_pem4f.oem4f (.const:ti_sysbios_knl_Semaphore_Object__PARAMS__C)
                  00015cd0    00000020     drivers_tivaware.aem4f : PWMTiva.oem4f (.const)
                  00015cf0    00000020                            : SPI.oem4f (.const)
                  00015d10    00000020     FestoStation_pem4f.oem4f (.const:ti_sysbios_family_arm_m3_Hwi_Object__DESC__C)
                  00015d30    00000020     FestoStation_pem4f.oem4f (.const:ti_sysbios_gates_GateHwi_Object__DESC__C)
                  00015d50    00000020     FestoStation_pem4f.oem4f (.const:ti_sysbios_gates_GateMutex_Object__DESC__C)
                  00015d70    00000020     FestoStation_pem4f.oem4f (.const:ti_sysbios_heaps_HeapMem_Object__DESC__C)
                  00015d90    00000020     FestoStation_pem4f.oem4f (.const:ti_sysbios_knl_Clock_Object__DESC__C)
                  00015db0    00000020     FestoStation_pem4f.oem4f (.const:ti_sysbios_knl_Queue_Object__DESC__C)
                  00015dd0    00000020     FestoStation_pem4f.oem4f (.const:ti_sysbios_knl_Semaphore_Object__DESC__C)
                  00015df0    00000020     FestoStation_pem4f.oem4f (.const:ti_sysbios_knl_Task_Object__DESC__C)
                  00015e10    00000020     FestoStation_pem4f.oem4f (.const:ti_uia_loggers_LoggerStopMode_Object__DESC__C)
                  00015e30    0000001c     drivers_tivaware.aem4f : I2CTiva.oem4f (.const)
                  00015e4c    00000018     DK_TM4C129X.obj (.const:EMAC_config)
                  00015e64    00000018     FestoStation_pem4f.oem4f (.const)
                  00015e7c    00000018     DK_TM4C129X.obj (.const:SDSPI_config)
                  00015e94    00000018     DK_TM4C129X.obj (.const:UART_config)
                  00015eac    00000018     DK_TM4C129X.obj (.const:USBMSCHFatFs_config)
                  00015ec4    00000018     DK_TM4C129X.obj (.const:Watchdog_config)
                  00015edc    00000018     drivers_tivaware.aem4f : WatchdogTiva.oem4f (.const)
                  00015ef4    00000018     DK_TM4C129X.obj (.const:pwmTivaHWAttrs)
                  00015f0c    00000018     FestoStation_pem4f.oem4f (.const:ti_sysbios_gates_GateHwi_Object__PARAMS__C)
                  00015f24    00000018     FestoStation_pem4f.oem4f (.const:ti_sysbios_gates_GateMutex_Object__PARAMS__C)
                  00015f3c    00000018     FestoStation_pem4f.oem4f (.const:ti_sysbios_knl_Queue_Object__PARAMS__C)
                  00015f54    00000018     DK_TM4C129X.obj (.const:uartTivaHWAttrs)
                  00015f6c    00000017     FestoStation.obj (.const:.string)
                  00015f83    00000001     --HOLE-- [fill = 0]
                  00015f84    00000014     DK_TM4C129X.obj (.const:GPIOTiva_config)
                  00015f98    00000014     FestoStation_pem4f.oem4f (.const:xdc_runtime_Startup_firstFxns__A)
                  00015fac    00000014     FestoStation_pem4f.oem4f (.const:xdc_runtime_Startup_sfxnRts__A)
                  00015fc0    00000011     ti.targets.arm.rtsarm.aem4f : System.oem4f (.const:.string)
                  00015fd1    00000001     --HOLE-- [fill = 0]
                  00015fd2    00000002     FestoStation_pem4f.oem4f (.const:ti_sysbios_family_arm_lm4_TimestampProvider_useClockTimer__C)
                  00015fd4    00000010     drivers_tivaware.aem4f : I2C.oem4f (.const)
                  00015fe4    00000010                            : SDSPITiva.oem4f (.const)
                  00015ff4    00000010                            : USBMSCHFatFs.oem4f (.const)
                  00016004    00000010     DK_TM4C129X.obj (.const:emacHWAttrs)
                  00016014    00000010     grlib.lib : context.obj (.const)
                  00016024    00000010     usblib.lib : usbhmsc.obj (.const)
                  00016034    00000010     DK_TM4C129X.obj (.const:watchdogTivaHWAttrs)
                  00016044    00000010     FestoStation_pem4f.oem4f (.const:xdc_runtime_Text_nodeTab__A)
                  00016054    0000000c     drivers_tivaware.aem4f : PWM.oem4f (.const)
                  00016060    0000000c                            : Watchdog.oem4f (.const)
                  0001606c    00000008     Boot.aem4f : Boot_sysctl.oem4f (.const)
                  00016074    00000008     drivers_tivaware.aem4f : EMACSnow.oem4f (.const)
                  0001607c    00000008                            : SDSPI.oem4f (.const)
                  00016084    00000008     FestoStation_pem4f.oem4f (.const:ti_sysbios_family_arm_m3_Hwi_excHookFuncs__A)
                  0001608c    00000008     FestoStation_pem4f.oem4f (.const:ti_sysbios_knl_Idle_funcList__C)
                  00016094    00000008     DK_TM4C129X.obj (.const:usbmschfatfstivaHWAttrs)
                  0001609c    00000008     FestoStation_pem4f.oem4f (.const:xdc_runtime_Startup_firstFxns__C)
                  000160a4    00000008     FestoStation_pem4f.oem4f (.const:xdc_runtime_Startup_lastFxns__C)
                  000160ac    00000004     FestoStation_pem4f.oem4f (.const:ti_catalog_arm_cortexm4_tiva_ce_Boot_A_mustNotUseEnhancedClockMode__C)
                  000160b0    00000004     FestoStation_pem4f.oem4f (.const:ti_catalog_arm_cortexm4_tiva_ce_Boot_Module__diagsEnabled__C)
                  000160b4    00000004     FestoStation_pem4f.oem4f (.const:ti_catalog_arm_cortexm4_tiva_ce_Boot_Module__diagsIncluded__C)
                  000160b8    00000004     FestoStation_pem4f.oem4f (.const:ti_catalog_arm_cortexm4_tiva_ce_Boot_Module__diagsMask__C)
                  000160bc    00000004     FestoStation_pem4f.oem4f (.const:ti_sysbios_family_arm_lm4_Timer_enableFunc__C)
                  000160c0    00000004     FestoStation_pem4f.oem4f (.const:ti_sysbios_family_arm_lm4_Timer_numTimerDevices__C)
                  000160c4    00000004     FestoStation_pem4f.oem4f (.const:ti_sysbios_family_arm_lm4_Timer_startupNeeded__C)
                  000160c8    00000004     FestoStation_pem4f.oem4f (.const:ti_sysbios_family_arm_m3_Hwi_E_NMI__C)
                  000160cc    00000004     FestoStation_pem4f.oem4f (.const:ti_sysbios_family_arm_m3_Hwi_E_alreadyDefined__C)
                  000160d0    00000004     FestoStation_pem4f.oem4f (.const:ti_sysbios_family_arm_m3_Hwi_E_busFault__C)
                  000160d4    00000004     FestoStation_pem4f.oem4f (.const:ti_sysbios_family_arm_m3_Hwi_E_debugMon__C)
                  000160d8    00000004     FestoStation_pem4f.oem4f (.const:ti_sysbios_family_arm_m3_Hwi_E_hardFault__C)
                  000160dc    00000004     FestoStation_pem4f.oem4f (.const:ti_sysbios_family_arm_m3_Hwi_E_memFault__C)
                  000160e0    00000004     FestoStation_pem4f.oem4f (.const:ti_sysbios_family_arm_m3_Hwi_E_noIsr__C)
                  000160e4    00000004     FestoStation_pem4f.oem4f (.const:ti_sysbios_family_arm_m3_Hwi_E_reserved__C)
                  000160e8    00000004     FestoStation_pem4f.oem4f (.const:ti_sysbios_family_arm_m3_Hwi_E_svCall__C)
                  000160ec    00000004     FestoStation_pem4f.oem4f (.const:ti_sysbios_family_arm_m3_Hwi_E_usageFault__C)
                  000160f0    00000004     FestoStation_pem4f.oem4f (.const:ti_sysbios_family_arm_m3_Hwi_LD_end__C)
                  000160f4    00000004     FestoStation_pem4f.oem4f (.const:ti_sysbios_family_arm_m3_Hwi_LM_begin__C)
                  000160f8    00000004     FestoStation_pem4f.oem4f (.const:ti_sysbios_family_arm_m3_Hwi_Module__diagsEnabled__C)
                  000160fc    00000004     FestoStation_pem4f.oem4f (.const:ti_sysbios_family_arm_m3_Hwi_Module__diagsIncluded__C)
                  00016100    00000004     FestoStation_pem4f.oem4f (.const:ti_sysbios_family_arm_m3_Hwi_Module__diagsMask__C)
                  00016104    00000004     FestoStation_pem4f.oem4f (.const:ti_sysbios_family_arm_m3_Hwi_Module__loggerFxn1__C)
                  00016108    00000004     FestoStation_pem4f.oem4f (.const:ti_sysbios_family_arm_m3_Hwi_Module__loggerFxn8__C)
                  0001610c    00000004     FestoStation_pem4f.oem4f (.const:ti_sysbios_family_arm_m3_Hwi_Module__loggerObj__C)
                  00016110    00000004     FestoStation_pem4f.oem4f (.const:ti_sysbios_family_arm_m3_Hwi_NUM_INTERRUPTS__C)
                  00016114    00000004     FestoStation_pem4f.oem4f (.const:ti_sysbios_family_arm_m3_Hwi_Object__count__C)
                  00016118    00000004     FestoStation_pem4f.oem4f (.const:ti_sysbios_family_arm_m3_Hwi_ccr__C)
                  0001611c    00000004     FestoStation_pem4f.oem4f (.const:ti_sysbios_family_arm_m3_Hwi_excHandlerFunc__C)
                  00016120    00000004     FestoStation_pem4f.oem4f (.const:ti_sysbios_family_arm_m3_Hwi_excHookFuncs__C)
                  00016124    00000004     FestoStation_pem4f.oem4f (.const:ti_sysbios_family_arm_m3_Hwi_nullIsrFunc__C)
                  00016128    00000004     FestoStation_pem4f.oem4f (.const:ti_sysbios_family_arm_m3_Hwi_priGroup__C)
                  0001612c    00000004     FestoStation_pem4f.oem4f (.const:ti_sysbios_family_arm_m3_TaskSupport_stackAlignment__C)
                  00016130    00000004     FestoStation_pem4f.oem4f (.const:ti_sysbios_gates_GateMutex_A_badContext__C)
                  00016134    00000004     FestoStation_pem4f.oem4f (.const:ti_sysbios_gates_GateMutex_Instance_State_sem__O)
                  00016138    00000004     FestoStation_pem4f.oem4f (.const:ti_sysbios_gates_GateMutex_Module__diagsEnabled__C)
                  0001613c    00000004     FestoStation_pem4f.oem4f (.const:ti_sysbios_gates_GateMutex_Module__diagsIncluded__C)
                  00016140    00000004     FestoStation_pem4f.oem4f (.const:ti_sysbios_gates_GateMutex_Module__diagsMask__C)
                  00016144    00000004     FestoStation_pem4f.oem4f (.const:ti_sysbios_heaps_HeapMem_A_align__C)
                  00016148    00000004     FestoStation_pem4f.oem4f (.const:ti_sysbios_heaps_HeapMem_A_heapSize__C)
                  0001614c    00000004     FestoStation_pem4f.oem4f (.const:ti_sysbios_heaps_HeapMem_A_invalidFree__C)
                  00016150    00000004     FestoStation_pem4f.oem4f (.const:ti_sysbios_heaps_HeapMem_A_zeroBlock__C)
                  00016154    00000004     FestoStation_pem4f.oem4f (.const:ti_sysbios_heaps_HeapMem_E_memory__C)
                  00016158    00000004     FestoStation_pem4f.oem4f (.const:ti_sysbios_heaps_HeapMem_Module__diagsEnabled__C)
                  0001615c    00000004     FestoStation_pem4f.oem4f (.const:ti_sysbios_heaps_HeapMem_Module__diagsIncluded__C)
                  00016160    00000004     FestoStation_pem4f.oem4f (.const:ti_sysbios_heaps_HeapMem_Module__diagsMask__C)
                  00016164    00000004     FestoStation_pem4f.oem4f (.const:ti_sysbios_heaps_HeapMem_Module__gateObj__C)
                  00016168    00000004     FestoStation_pem4f.oem4f (.const:ti_sysbios_heaps_HeapMem_Object__count__C)
                  0001616c    00000004     FestoStation_pem4f.oem4f (.const:ti_sysbios_heaps_HeapMem_reqAlign__C)
                  00016170    00000004     FestoStation_pem4f.oem4f (.const:ti_sysbios_knl_Clock_A_badThreadType__C)
                  00016174    00000004     FestoStation_pem4f.oem4f (.const:ti_sysbios_knl_Clock_LM_begin__C)
                  00016178    00000004     FestoStation_pem4f.oem4f (.const:ti_sysbios_knl_Clock_LM_tick__C)
                  0001617c    00000004     FestoStation_pem4f.oem4f (.const:ti_sysbios_knl_Clock_LW_delayed__C)
                  00016180    00000004     FestoStation_pem4f.oem4f (.const:ti_sysbios_knl_Clock_Module_State_clockQ__O)
                  00016184    00000004     FestoStation_pem4f.oem4f (.const:ti_sysbios_knl_Clock_Module__diagsEnabled__C)
                  00016188    00000004     FestoStation_pem4f.oem4f (.const:ti_sysbios_knl_Clock_Module__diagsIncluded__C)
                  0001618c    00000004     FestoStation_pem4f.oem4f (.const:ti_sysbios_knl_Clock_Module__diagsMask__C)
                  00016190    00000004     FestoStation_pem4f.oem4f (.const:ti_sysbios_knl_Clock_Module__loggerFxn1__C)
                  00016194    00000004     FestoStation_pem4f.oem4f (.const:ti_sysbios_knl_Clock_Module__loggerFxn2__C)
                  00016198    00000004     FestoStation_pem4f.oem4f (.const:ti_sysbios_knl_Clock_Module__loggerObj__C)
                  0001619c    00000004     FestoStation_pem4f.oem4f (.const:ti_sysbios_knl_Event_A_badContext__C)
                  000161a0    00000004     FestoStation_pem4f.oem4f (.const:ti_sysbios_knl_Event_A_eventInUse__C)
                  000161a4    00000004     FestoStation_pem4f.oem4f (.const:ti_sysbios_knl_Event_A_nullEventId__C)
                  000161a8    00000004     FestoStation_pem4f.oem4f (.const:ti_sysbios_knl_Event_A_nullEventMasks__C)
                  000161ac    00000004     FestoStation_pem4f.oem4f (.const:ti_sysbios_knl_Event_A_pendTaskDisabled__C)
                  000161b0    00000004     FestoStation_pem4f.oem4f (.const:ti_sysbios_knl_Event_Instance_State_pendQ__O)
                  000161b4    00000004     FestoStation_pem4f.oem4f (.const:ti_sysbios_knl_Event_LM_pend__C)
                  000161b8    00000004     FestoStation_pem4f.oem4f (.const:ti_sysbios_knl_Event_LM_post__C)
                  000161bc    00000004     FestoStation_pem4f.oem4f (.const:ti_sysbios_knl_Event_Module__diagsEnabled__C)
                  000161c0    00000004     FestoStation_pem4f.oem4f (.const:ti_sysbios_knl_Event_Module__diagsIncluded__C)
                  000161c4    00000004     FestoStation_pem4f.oem4f (.const:ti_sysbios_knl_Event_Module__diagsMask__C)
                  000161c8    00000004     FestoStation_pem4f.oem4f (.const:ti_sysbios_knl_Event_Module__loggerFxn4__C)
                  000161cc    00000004     FestoStation_pem4f.oem4f (.const:ti_sysbios_knl_Event_Module__loggerFxn8__C)
                  000161d0    00000004     FestoStation_pem4f.oem4f (.const:ti_sysbios_knl_Event_Module__loggerObj__C)
                  000161d4    00000004     FestoStation_pem4f.oem4f (.const:ti_sysbios_knl_Idle_funcList__A)
                  000161d8    00000004     FestoStation_pem4f.oem4f (.const:ti_sysbios_knl_Mailbox_Instance_State_freeQue__O)
                  000161dc    00000004     FestoStation_pem4f.oem4f (.const:ti_sysbios_knl_Mailbox_Object__count__C)
                  000161e0    00000004     FestoStation_pem4f.oem4f (.const:ti_sysbios_knl_Mailbox_maxTypeAlign__C)
                  000161e4    00000004     FestoStation_pem4f.oem4f (.const:ti_sysbios_knl_Semaphore_A_badContext__C)
                  000161e8    00000004     FestoStation_pem4f.oem4f (.const:ti_sysbios_knl_Semaphore_A_overflow__C)
                  000161ec    00000004     FestoStation_pem4f.oem4f (.const:ti_sysbios_knl_Semaphore_A_pendTaskDisabled__C)
                  000161f0    00000004     FestoStation_pem4f.oem4f (.const:ti_sysbios_knl_Semaphore_Instance_State_pendQ__O)
                  000161f4    00000004     FestoStation_pem4f.oem4f (.const:ti_sysbios_knl_Semaphore_LM_pend__C)
                  000161f8    00000004     FestoStation_pem4f.oem4f (.const:ti_sysbios_knl_Semaphore_LM_post__C)
                  000161fc    00000004     FestoStation_pem4f.oem4f (.const:ti_sysbios_knl_Semaphore_Module__diagsEnabled__C)
                  00016200    00000004     FestoStation_pem4f.oem4f (.const:ti_sysbios_knl_Semaphore_Module__diagsIncluded__C)
                  00016204    00000004     FestoStation_pem4f.oem4f (.const:ti_sysbios_knl_Semaphore_Module__diagsMask__C)
                  00016208    00000004     FestoStation_pem4f.oem4f (.const:ti_sysbios_knl_Semaphore_Module__loggerFxn2__C)
                  0001620c    00000004     FestoStation_pem4f.oem4f (.const:ti_sysbios_knl_Semaphore_Module__loggerFxn4__C)
                  00016210    00000004     FestoStation_pem4f.oem4f (.const:ti_sysbios_knl_Semaphore_Module__loggerObj__C)
                  00016214    00000004     FestoStation_pem4f.oem4f (.const:ti_sysbios_knl_Semaphore_eventPost__C)
                  00016218    00000004     FestoStation_pem4f.oem4f (.const:ti_sysbios_knl_Semaphore_eventSync__C)
                  0001621c    00000004     FestoStation_pem4f.oem4f (.const:ti_sysbios_knl_Task_A_badPriority__C)
                  00016220    00000004     FestoStation_pem4f.oem4f (.const:ti_sysbios_knl_Task_A_badTaskState__C)
                  00016224    00000004     FestoStation_pem4f.oem4f (.const:ti_sysbios_knl_Task_A_badThreadType__C)
                  00016228    00000004     FestoStation_pem4f.oem4f (.const:ti_sysbios_knl_Task_A_badTimeout__C)
                  0001622c    00000004     FestoStation_pem4f.oem4f (.const:ti_sysbios_knl_Task_A_noPendElem__C)
                  00016230    00000004     FestoStation_pem4f.oem4f (.const:ti_sysbios_knl_Task_A_sleepTaskDisabled__C)
                  00016234    00000004     FestoStation_pem4f.oem4f (.const:ti_sysbios_knl_Task_E_spOutOfBounds__C)
                  00016238    00000004     FestoStation_pem4f.oem4f (.const:ti_sysbios_knl_Task_E_stackOverflow__C)
                  0001623c    00000004     FestoStation_pem4f.oem4f (.const:ti_sysbios_knl_Task_LD_block__C)
                  00016240    00000004     FestoStation_pem4f.oem4f (.const:ti_sysbios_knl_Task_LD_exit__C)
                  00016244    00000004     FestoStation_pem4f.oem4f (.const:ti_sysbios_knl_Task_LD_ready__C)
                  00016248    00000004     FestoStation_pem4f.oem4f (.const:ti_sysbios_knl_Task_LM_sleep__C)
                  0001624c    00000004     FestoStation_pem4f.oem4f (.const:ti_sysbios_knl_Task_LM_switch__C)
                  00016250    00000004     FestoStation_pem4f.oem4f (.const:ti_sysbios_knl_Task_Module_State_inactiveQ__O)
                  00016254    00000004     FestoStation_pem4f.oem4f (.const:ti_sysbios_knl_Task_Module__diagsEnabled__C)
                  00016258    00000004     FestoStation_pem4f.oem4f (.const:ti_sysbios_knl_Task_Module__diagsIncluded__C)
                  0001625c    00000004     FestoStation_pem4f.oem4f (.const:ti_sysbios_knl_Task_Module__diagsMask__C)
                  00016260    00000004     FestoStation_pem4f.oem4f (.const:ti_sysbios_knl_Task_Module__loggerFxn2__C)
                  00016264    00000004     FestoStation_pem4f.oem4f (.const:ti_sysbios_knl_Task_Module__loggerFxn4__C)
                  00016268    00000004     FestoStation_pem4f.oem4f (.const:ti_sysbios_knl_Task_Module__loggerObj__C)
                  0001626c    00000004     FestoStation_pem4f.oem4f (.const:ti_sysbios_knl_Task_Object__count__C)
                  00016270    00000004     FestoStation_pem4f.oem4f (.const:ti_sysbios_knl_Task_allBlockedFunc__C)
                  00016274    00000004     FestoStation_pem4f.oem4f (.const:ti_sysbios_knl_Task_defaultStackHeap__C)
                  00016278    00000004     FestoStation_pem4f.oem4f (.const:ti_sysbios_knl_Task_defaultStackSize__C)
                  0001627c    00000004     FestoStation_pem4f.oem4f (.const:ti_sysbios_knl_Task_numConstructedTasks__C)
                  00016280    00000004     FestoStation_pem4f.oem4f (.const:ti_sysbios_knl_Task_numPriorities__C)
                  00016284    00000004     FestoStation_pem4f.oem4f (.const:ti_sysbios_utils_Load_LS_cpuLoad__C)
                  00016288    00000004     FestoStation_pem4f.oem4f (.const:ti_sysbios_utils_Load_LS_hwiLoad__C)
                  0001628c    00000004     FestoStation_pem4f.oem4f (.const:ti_sysbios_utils_Load_Module__diagsEnabled__C)
                  00016290    00000004     FestoStation_pem4f.oem4f (.const:ti_sysbios_utils_Load_Module__diagsIncluded__C)
                  00016294    00000004     FestoStation_pem4f.oem4f (.const:ti_sysbios_utils_Load_Module__diagsMask__C)
                  00016298    00000004     FestoStation_pem4f.oem4f (.const:ti_sysbios_utils_Load_Module__loggerFxn1__C)
                  0001629c    00000004     FestoStation_pem4f.oem4f (.const:ti_sysbios_utils_Load_Module__loggerFxn2__C)
                  000162a0    00000004     FestoStation_pem4f.oem4f (.const:ti_sysbios_utils_Load_Module__loggerObj__C)
                  000162a4    00000004     FestoStation_pem4f.oem4f (.const:ti_sysbios_utils_Load_postUpdate__C)
                  000162a8    00000004     FestoStation_pem4f.oem4f (.const:ti_sysbios_utils_Load_windowInMs__C)
                  000162ac    00000004     FestoStation_pem4f.oem4f (.const:ti_uia_loggers_LoggerStopMode_Module__diagsEnabled__C)
                  000162b0    00000004     FestoStation_pem4f.oem4f (.const:ti_uia_loggers_LoggerStopMode_Module__diagsIncluded__C)
                  000162b4    00000004     FestoStation_pem4f.oem4f (.const:ti_uia_loggers_LoggerStopMode_Module__diagsMask__C)
                  000162b8    00000004     FestoStation_pem4f.oem4f (.const:ti_uia_loggers_LoggerStopMode_Object__count__C)
                  000162bc    00000004     FestoStation_pem4f.oem4f (.const:ti_uia_runtime_ILoggerSnapshot_Interface__BASE__C)
                  000162c0    00000004     FestoStation_pem4f.oem4f (.const:ti_uia_runtime_IUIATransfer_Interface__BASE__C)
                  000162c4    00000004     FestoStation_pem4f.oem4f (.const:xdc_runtime_Assert_E_assertFailed__C)
                  000162c8    00000004     FestoStation_pem4f.oem4f (.const:xdc_runtime_Core_A_initializedParams__C)
                  000162cc    00000004     FestoStation_pem4f.oem4f (.const:xdc_runtime_Core_Module__diagsEnabled__C)
                  000162d0    00000004     FestoStation_pem4f.oem4f (.const:xdc_runtime_Core_Module__diagsIncluded__C)
                  000162d4    00000004     FestoStation_pem4f.oem4f (.const:xdc_runtime_Core_Module__diagsMask__C)
                  000162d8    00000004     FestoStation_pem4f.oem4f (.const:xdc_runtime_Error_E_memory__C)
                  000162dc    00000004     FestoStation_pem4f.oem4f (.const:xdc_runtime_Error_Module__diagsEnabled__C)
                  000162e0    00000004     FestoStation_pem4f.oem4f (.const:xdc_runtime_Error_Module__diagsIncluded__C)
                  000162e4    00000004     FestoStation_pem4f.oem4f (.const:xdc_runtime_Error_Module__diagsMask__C)
                  000162e8    00000004     FestoStation_pem4f.oem4f (.const:xdc_runtime_Error_Module__loggerFxn8__C)
                  000162ec    00000004     FestoStation_pem4f.oem4f (.const:xdc_runtime_Error_Module__loggerObj__C)
                  000162f0    00000004     FestoStation_pem4f.oem4f (.const:xdc_runtime_Error_policyFxn__C)
                  000162f4    00000004     FestoStation_pem4f.oem4f (.const:xdc_runtime_Error_raiseHook__C)
                  000162f8    00000004     FestoStation_pem4f.oem4f (.const:xdc_runtime_IFilterLogger_Interface__BASE__C)
                  000162fc    00000004     FestoStation_pem4f.oem4f (.const:xdc_runtime_IGateProvider_Interface__BASE__C)
                  00016300    00000004     FestoStation_pem4f.oem4f (.const:xdc_runtime_IHeap_Interface__BASE__C)
                  00016304    00000004     FestoStation_pem4f.oem4f (.const:xdc_runtime_ILogger_Interface__BASE__C)
                  00016308    00000004     FestoStation_pem4f.oem4f (.const:xdc_runtime_IModule_Interface__BASE__C)
                  0001630c    00000004     FestoStation_pem4f.oem4f (.const:xdc_runtime_Log_L_error__C)
                  00016310    00000004     FestoStation_pem4f.oem4f (.const:xdc_runtime_Memory_defaultHeapInstance__C)
                  00016314    00000004     FestoStation_pem4f.oem4f (.const:xdc_runtime_Startup_execImpl__C)
                  00016318    00000004     FestoStation_pem4f.oem4f (.const:xdc_runtime_Startup_lastFxns__A)
                  0001631c    00000004     FestoStation_pem4f.oem4f (.const:xdc_runtime_Startup_maxPasses__C)
                  00016320    00000004     FestoStation_pem4f.oem4f (.const:xdc_runtime_Startup_sfxnRts__C)
                  00016324    00000004     FestoStation_pem4f.oem4f (.const:xdc_runtime_Startup_sfxnTab__C)
                  00016328    00000004     FestoStation_pem4f.oem4f (.const:xdc_runtime_SysMin_bufSize__C)
                  0001632c    00000004     FestoStation_pem4f.oem4f (.const:xdc_runtime_SysMin_outputFunc__C)
                  00016330    00000004     FestoStation_pem4f.oem4f (.const:xdc_runtime_System_Module__gateObj__C)
                  00016334    00000004     FestoStation_pem4f.oem4f (.const:xdc_runtime_System_abortFxn__C)
                  00016338    00000004     FestoStation_pem4f.oem4f (.const:xdc_runtime_System_exitFxn__C)
                  0001633c    00000004     FestoStation_pem4f.oem4f (.const:xdc_runtime_System_extendFxn__C)
                  00016340    00000004     FestoStation_pem4f.oem4f (.const:xdc_runtime_System_maxAtexitHandlers__C)
                  00016344    00000004     FestoStation_pem4f.oem4f (.const:xdc_runtime_Text_charTab__C)
                  00016348    00000004     FestoStation_pem4f.oem4f (.const:xdc_runtime_Text_nameEmpty__C)
                  0001634c    00000004     FestoStation_pem4f.oem4f (.const:xdc_runtime_Text_nameStatic__C)
                  00016350    00000004     FestoStation_pem4f.oem4f (.const:xdc_runtime_Text_nameUnknown__C)
                  00016354    00000004     FestoStation_pem4f.oem4f (.const:xdc_runtime_Text_nodeTab__C)
                  00016358    00000004     FestoStation_pem4f.oem4f (.const:xdc_runtime_Text_visitRopeFxn__C)
                  0001635c    00000002     FestoStation_pem4f.oem4f (.const:ti_sysbios_family_arm_m3_Hwi_Module__id__C)
                  0001635e    00000002     FestoStation_pem4f.oem4f (.const:ti_sysbios_family_arm_m3_Hwi_Module__loggerDefined__C)
                  00016360    00000002     FestoStation_pem4f.oem4f (.const:ti_sysbios_gates_GateMutex_Module__id__C)
                  00016362    00000002     FestoStation_pem4f.oem4f (.const:ti_sysbios_heaps_HeapMem_Module__id__C)
                  00016364    00000002     FestoStation_pem4f.oem4f (.const:ti_sysbios_knl_Clock_Module__id__C)
                  00016366    00000002     FestoStation_pem4f.oem4f (.const:ti_sysbios_knl_Clock_Module__loggerDefined__C)
                  00016368    00000002     FestoStation_pem4f.oem4f (.const:ti_sysbios_knl_Event_Module__id__C)
                  0001636a    00000002     FestoStation_pem4f.oem4f (.const:ti_sysbios_knl_Event_Module__loggerDefined__C)
                  0001636c    00000002     FestoStation_pem4f.oem4f (.const:ti_sysbios_knl_Semaphore_Module__id__C)
                  0001636e    00000002     FestoStation_pem4f.oem4f (.const:ti_sysbios_knl_Semaphore_Module__loggerDefined__C)
                  00016370    00000002     FestoStation_pem4f.oem4f (.const:ti_sysbios_knl_Task_Module__id__C)
                  00016372    00000002     FestoStation_pem4f.oem4f (.const:ti_sysbios_knl_Task_Module__loggerDefined__C)
                  00016374    00000002     FestoStation_pem4f.oem4f (.const:ti_sysbios_knl_Task_initStackFlag__C)
                  00016376    00000002     FestoStation_pem4f.oem4f (.const:ti_sysbios_utils_Load_Module__id__C)
                  00016378    00000002     FestoStation_pem4f.oem4f (.const:ti_sysbios_utils_Load_Module__loggerDefined__C)
                  0001637a    00000002     FestoStation_pem4f.oem4f (.const:ti_sysbios_utils_Load_hwiEnabled__C)
                  0001637c    00000002     FestoStation_pem4f.oem4f (.const:ti_sysbios_utils_Load_updateInIdle__C)
                  0001637e    00000002     FestoStation_pem4f.oem4f (.const:ti_uia_loggers_LoggerStopMode_Module__id__C)
                  00016380    00000002     FestoStation_pem4f.oem4f (.const:ti_uia_loggers_LoggerStopMode_isTimestampEnabled__C)
                  00016382    00000002     FestoStation_pem4f.oem4f (.const:xdc_runtime_Core_Module__id__C)
                  00016384    00000002     FestoStation_pem4f.oem4f (.const:xdc_runtime_Error_Module__loggerDefined__C)
                  00016386    00000002     FestoStation_pem4f.oem4f (.const:xdc_runtime_Error_maxDepth__C)
                  00016388    00000002     FestoStation_pem4f.oem4f (.const:xdc_runtime_Memory_Module__id__C)
                  0001638a    00000002     FestoStation_pem4f.oem4f (.const:xdc_runtime_SysMin_flushAtExit__C)
                  0001638c    00000002     FestoStation_pem4f.oem4f (.const:xdc_runtime_Text_charCnt__C)
                  0001638e    00000002     FestoStation_pem4f.oem4f (.const:xdc_runtime_Text_isLoaded__C)
                  00016390    00000002     FestoStation_pem4f.oem4f (.const:xdc_runtime_Text_registryModsLastId__C)
                  00016392    00000002     FestoStation_pem4f.oem4f (.const:xdc_runtime_Text_unnamedModsLastId__C)

.cinit     0    00016398    00000498     
                  00016398    00000461     (.cinit..data.load) [load image, compression = rle]
                  000167f9    00000003     --HOLE-- [fill = 0]
                  000167fc    0000000c     (__TI_handler_table)
                  00016808    00000008     (.cinit..bss.load) [load image, compression = zero_init]
                  00016810    00000008     (.cinit..vecs.load) [load image, compression = zero_init]
                  00016818    00000018     (__TI_cinit_table)

.init_array 
*          0    00000000    00000000     UNINITIALIZED

.vecs      0    20000000    00000360     UNINITIALIZED
                  20000000    00000360     FestoStation_pem4f.oem4f (.vecs)

.bss       0    20000400    00005e6c     UNINITIALIZED
                  20000400    00002000     FestoStation_pem4f.oem4f (.bss:ti_sysbios_heaps_HeapMem_Instance_State_0_buf__A)
                  20002400    00001600     FestoStation_pem4f.oem4f (.bss:taskStackSection)
                  20003a00    000006cc     usblib.lib : usbhostenum.obj (.bss:g_sUSBHCD)
                  200040cc    00000004     (.common:bufferSem)
                  200040d0    00000460     FestoStation_pem4f.oem4f (.bss:ti_sysbios_knl_Mailbox_Instance_State_0_allocBuf__A)
                  20004530    00000050     usblib.lib : usbdenum.obj (.bss:g_psDCDInst)
                  20004580    00000400     FestoStation_pem4f.oem4f (.bss:ti_uia_loggers_LoggerStopMode_Instance_State_2_packetArray__A)
                  20004980    00000398     DK_TM4C129X.obj (.bss:usbmschfatfstivaObjects)
                  20004d18    00000360     FestoStation_pem4f.oem4f (.bss:ti_sysbios_family_arm_m3_Hwi_dispatchTable)
                  20005078    00000240     DK_TM4C129X.obj (.bss:sdspiTivaObjects)
                  200052b8    00000120     rtsv7M4_T_le_v4SPD16_eabi.lib : trgmsg.obj (.bss:__CIOBUF_)
                  200053d8    00000020     (.common:g_pui8Dictionary)
                  200053f8    00000008     (.common:emacObjects)
                  20005400    00000200     DK_TM4C129X.obj (.bss:dmaControlTable)
                  20005600    00000200     FestoStation_pem4f.oem4f (.bss:ti_uia_loggers_LoggerStopMode_Instance_State_1_packetArray__A)
                  20005800    00000180     DK_TM4C129X.obj (.bss:i2cTivaObjects)
                  20005980    00000110     usblib.lib : usbdma.obj (.bss:g_psUSBDMAInst)
                  20005a90    00000040     drivers_tivaware.aem4f : EMACSnow.oem4f (.bss:EMACSnow_private)
                  20005ad0    00000020     (.common:uartTivaRingBuffer)
                  20005af0    00000010     (.common:pwmTivaObjects)
                  20005b00    00000100     FestoStation_pem4f.oem4f (.bss:ti_uia_loggers_LoggerStopMode_Instance_State_0_packetArray__A)
                  20005c00    000000e4     DK_TM4C129X.obj (.bss:spiTivaDMAObjects)
                  20005ce4    000000cc     DK_TM4C129X.obj (.bss:uartTivaObjects)
                  20005db0    0000009c     usblib.lib : usbhhub.obj (.bss:g_sRootHub)
                  20005e4c    00000090     drivers_tivaware.aem4f : EMACSnow.oem4f (.bss:g_pRxDescriptors)
                  20005edc    00000090                            : EMACSnow.oem4f (.bss:g_pTxDescriptors)
                  20005f6c    00000090                            : GPIOTiva.oem4f (.bss:gpioCallbackInfo)
                  20005ffc    00000080     FestoStation_pem4f.oem4f (.bss:xdc_runtime_SysMin_Module_State_0_outbuf__A)
                  2000607c    00000040     usblib.lib : usbdenum.obj (.bss:g_pui8DataBufferIn)
                  200060bc    00000034     FestoStation.obj (.bss:buffer)
                  200060f0    00000010     (.common:sdspiHandles)
                  20006100    00000030     FestoStation_pem4f.oem4f (.bss:ti_uia_loggers_LoggerStopMode_Instance_State_0_hdr__A)
                  20006130    00000020     (.common:watchdogTivaObjects)
                  20006150    0000001c     (.common:hwiStruct)
                  2000616c    00000008     (.common:g_pui32Alloc)
                  20006174    00000008     (.common:parmbuf)
                  2000617c    00000004     (.common:g_pfnUSBModeCallback)
                  20006180    00000030     FestoStation_pem4f.oem4f (.bss:ti_uia_loggers_LoggerStopMode_Instance_State_1_hdr__A)
                  200061b0    00000018     (.common:g_pfnTickHandlers)
                  200061c8    00000018     (.common:g_pi32USBHActiveDriver)
                  200061e0    00000018     (.common:g_ppvDriverInstance)
                  200061f8    00000004     (.common:g_ppsDevInfo)
                  200061fc    00000004     (.common:g_psGrLibDefaults)
                  20006200    00000030     FestoStation_pem4f.oem4f (.bss:ti_uia_loggers_LoggerStopMode_Instance_State_2_hdr__A)
                  20006230    00000018     (.common:g_pvTickInstance)
                  20006248    00000004     (.common:g_ui32ChangeFlags)
                  2000624c    00000004     (.common:g_ui32HubChanges)
                  20006250    00000004     (.common:g_ui32PollRate)
                  20006254    00000004     (.common:g_ui32ULPISupport)
                  20006258    00000004     (.common:gpioInterruptVectors)
                  2000625c    00000001     (.common:g_eOTGModeState)
                  2000625d    00000003     --HOLE--
                  20006260    0000000c     (.common:spiTivaDMAscratchBuf)

.data      0    2000626c    000007e8     UNINITIALIZED
                  2000626c    00000174     FestoStation_pem4f.oem4f (.data)
                  200063e0    00000130     FestoStation_pem4f.oem4f (.data:ti_sysbios_knl_Task_Object__table__V)
                  20006510    0000009c     FestoStation_pem4f.oem4f (.data:ti_uia_loggers_LoggerStopMode_Object__table__V)
                  200065ac    00000098     FestoStation_pem4f.oem4f (.data:ti_sysbios_utils_Load_Module__state__V)
                  20006644    00000080     FestoStation_pem4f.oem4f (.data:ti_sysbios_family_arm_lm4_Timer_Object__table__V)
                  200066c4    00000058     DK_TM4C129X.obj (.data:gpioPinConfigs)
                  2000671c    00000050     ti.sysbios.fatfs.aem4f : diskio.oem4f (.data:drive_fxn_table)
                  2000676c    00000050     FestoStation_pem4f.oem4f (.data:ti_sysbios_knl_Mailbox_Object__table__V)
                  200067bc    00000044     FestoStation_pem4f.oem4f (.data:ti_sysbios_knl_Task_Module__state__V)
                  20006800    00000040     FestoStation_pem4f.oem4f (.data:ti_sysbios_family_arm_lm4_Timer_Module_State_0_device__A)
                  20006840    00000038     FestoStation_pem4f.oem4f (.data:ti_sysbios_gates_GateMutex_Object__table__V)
                  20006878    00000034     FestoStation_pem4f.oem4f (.data:ti_sysbios_family_arm_m3_Hwi_Module__state__V)
                  200068ac    00000032     drivers_tivaware.aem4f : EMACSnow.oem4f (.data)
                  200068de    00000002     --HOLE--
                  200068e0    00000030     FestoStation_pem4f.oem4f (.data:ti_sysbios_family_arm_m3_Hwi_Object__table__V)
                  20006910    0000002c     FestoStation_pem4f.oem4f (.data:ti_sysbios_knl_Clock_Module__state__V)
                  2000693c    0000002c     usblib.lib : usbhostenum.obj (.data)
                  20006968    00000024     FestoStation_pem4f.oem4f (.data:ti_sysbios_BIOS_Module__state__V)
                  2000698c    0000001c     usblib.lib : usbhmsc.obj (.data)
                  200069a8    00000018     drivers_tivaware.aem4f : PWMTiva.oem4f (.data)
                  200069c0    00000014     DK_TM4C129X.obj (.data)
                  200069d4    00000012     ti.sysbios.fatfs.aem4f : ff.oem4f (.data)
                  200069e6    00000002     --HOLE--
                  200069e8    0000000c     usblib.lib : usbtick.obj (.data)
                  200069f4    00000009                : usbmode.obj (.data)
                  200069fd    00000003     --HOLE--
                  20006a00    00000008     rtsv7M4_T_le_v4SPD16_eabi.lib : _lock.obj (.data)
                  20006a08    00000008                                   : exit.obj (.data)
                  20006a10    00000008     ti.uia.runtime.aem4f : QueueDescriptor.oem4f (.data)
                  20006a18    00000008     usblib.lib : usbdenum.obj (.data)
                  20006a20    00000005     drivers_tivaware.aem4f : GPIOTiva.oem4f (.data)
                  20006a25    00000003     --HOLE--
                  20006a28    00000004     FestoStation.obj (.data)
                  20006a2c    00000004     drivers_tivaware.aem4f : EMAC.oem4f (.data)
                  20006a30    00000004                            : I2C.oem4f (.data)
                  20006a34    00000004                            : PWM.oem4f (.data)
                  20006a38    00000004                            : SDSPI.oem4f (.data)
                  20006a3c    00000004                            : SDSPITiva.oem4f (.data)
                  20006a40    00000004                            : SPI.oem4f (.data)
                  20006a44    00000004                            : UART.oem4f (.data)
                  20006a48    00000004                            : USBMSCHFatFs.oem4f (.data)
                  20006a4c    00000004                            : Watchdog.oem4f (.data)
                  20006a50    00000004     rtsv7M4_T_le_v4SPD16_eabi.lib : stkdepth_vars.obj (.data)

.stack     0    20006a54    00000300     UNINITIALIZED
                  20006a54    00000300     --HOLE--

.bootVecs 
*          0    00000000    00000008     DSECT
                  00000000    00000008     boot.aem4f : boot.oem4f (.bootVecs)

xdc.meta   0    00000000    000000e0     COPY SECTION
                  00000000    000000e0     FestoStation_pem4f.oem4f (xdc.meta)

.TI.noinit 
*          0    20000400    00000000     UNINITIALIZED

.TI.persistent 
*          0    2000626c    00000000     UNINITIALIZED


LINKER GENERATED COPY TABLES

__TI_cinit_table @ 00016818 records: 3, size/record: 8, table size: 24
	.data: load addr=00016398, load size=00000461 bytes, run addr=2000626c, run size=000007e8 bytes, compression=rle
	.bss: load addr=00016808, load size=00000008 bytes, run addr=20000400, run size=00005e6c bytes, compression=zero_init
	.vecs: load addr=00016810, load size=00000008 bytes, run addr=20000000, run size=00000360 bytes, compression=zero_init


LINKER GENERATED HANDLER TABLE

__TI_handler_table @ 000167fc records: 3, size/record: 4, table size: 12
	index: 0, handler: __TI_decompress_rle24
	index: 1, handler: __TI_decompress_none
	index: 2, handler: __TI_zero_init


GLOBAL SYMBOLS: SORTED ALPHABETICALLY BY Name 

address   name                                                                 
-------   ----                                                                 
0000ce21  C$$EXIT                                                              
0000b2df  C$$IO$$                                                              
0000b9a9  ConfigDescAlloc                                                      
0000e199  ConfigDescFree                                                       
0000073b  DK_TM4C129X_initDMA                                                  
00000801  DK_TM4C129X_initEMAC                                                 
000008c5  DK_TM4C129X_initGPIO                                                 
0000078b  DK_TM4C129X_initGeneral                                              
000008cd  DK_TM4C129X_initI2C                                                  
00000943  DK_TM4C129X_initPWM                                                  
0000096d  DK_TM4C129X_initSDSPI                                                
000009c1  DK_TM4C129X_initSPI                                                  
00000a99  DK_TM4C129X_initUART                                                 
00000b21  DK_TM4C129X_initUSB                                                  
00000b75  DK_TM4C129X_initUSBMSCHFatFs                                         
00000b91  DK_TM4C129X_initWatchdog                                             
00000bd5  DK_TM4C129X_initWiFi                                                 
00015e74  DisplayEvents                                                        
00015e78  DisplayMailbox                                                       
0000e671  EMACPHYRead                                                          
00016074  EMACSnow_fxnTable                                                    
0000f949  EMACSnow_init                                                        
0000e4dd  EMACSnow_isLinkUp                                                    
00015e4c  EMAC_config                                                          
0000d9c9  EMAC_init                                                            
00015e6c  FESTO                                                                
00015e70  FestoEvents                                                          
00000e17  Festo_Control_Driver                                                 
00000dd9  Festo_Control_Ejector                                                
00000e49  Festo_Control_Measure                                                
00000d89  Festo_Control_Platform                                               
00000d19  Festo_Driver_Init                                                    
00000eeb  Festo_Sense_Ejector_Ready                                            
00000eff  Festo_Sense_Measure_Down                                             
00000e9b  Festo_Sense_Piece_Colour                                             
00000eaf  Festo_Sense_Piece_Material                                           
00000e87  Festo_Sense_Piece_Placed                                             
00000ec3  Festo_Sense_Riser_Down                                               
00000ed7  Festo_Sense_Riser_Up                                                 
0000f38d  FlashUserGet                                                         
00002d09  FrameDraw                                                            
0000e45d  GPIODirModeSet                                                       
0000857b  GPIOIntClear                                                         
0000f955  GPIOIntEnable                                                        
0000f847  GPIOIntStatus                                                        
0000be41  GPIOIntTypeSet                                                       
000062bd  GPIOPadConfigSet                                                     
0000c9b1  GPIOPinConfigure                                                     
0000dd6b  GPIOPinRead                                                          
0000f50d  GPIOPinTypeEthernetLED                                               
0000f51f  GPIOPinTypeGPIOInput                                                 
0000f04f  GPIOPinTypeGPIOOutput                                                
0000f531  GPIOPinTypeI2C                                                       
0000f543  GPIOPinTypeI2CSCL                                                    
0000f555  GPIOPinTypePWM                                                       
0000f567  GPIOPinTypeSSI                                                       
0000f579  GPIOPinTypeUART                                                      
0000f58b  GPIOPinTypeUSBAnalog                                                 
0000f59d  GPIOPinTypeUSBDigital                                                
0000dda3  GPIOPinWrite                                                         
00015f84  GPIOTiva_config                                                      
0000ea21  GPIO_clearInt                                                        
0000de0d  GPIO_enableInt                                                       
0000b3e5  GPIO_hwiIntFxn                                                       
000097f1  GPIO_init                                                            
0000de3d  GPIO_read                                                            
0000c131  GPIO_setCallback                                                     
00005b41  GPIO_setConfig                                                       
0000c181  GPIO_toggle                                                          
0000c1d1  GPIO_write                                                           
0000b641  GrContextClipRegionSet                                               
0000f6ab  GrContextFontSet                                                     
0000b111  GrContextInit                                                        
000084b7  GrDefaultStringRenderer                                              
0000e1f1  GrFontBaselineGet                                                    
0000ecc1  GrFontCodepageGet                                                    
0000e92d  GrFontGlyphDataGet                                                   
00002f81  GrFontGlyphRender                                                    
0000e697  GrFontInfoGet                                                        
0000f855  GrImageDraw                                                          
0000fc3f  GrMapISO8859_1_Unicode                                               
0000f2f1  GrStringDraw                                                         
0000e10d  GrStringNextCharGet                                                  
0000afd1  GrStringWidthGet                                                     
00002cc1  HOSTclock                                                            
00002c89  HOSTclose                                                            
00002c4b  HOSTgetenv                                                           
00002bef  HOSTlseek                                                            
00002b9d  HOSTopen                                                             
00002b51  HOSTread                                                             
00002af3  HOSTrename                                                           
00002ab9  HOSTtime                                                             
00002a81  HOSTunlink                                                           
00002a35  HOSTwrite                                                            
0000242d  I2CMasterControl                                                     
0000342d  I2CMasterDataGet                                                     
0000409d  I2CMasterDataPut                                                     
0000fb09  I2CMasterDisable                                                     
0000fb13  I2CMasterEnable                                                      
0000f307  I2CMasterErr                                                         
0000c9f9  I2CMasterInitExpClk                                                  
0000fc47  I2CMasterIntClear                                                    
0000fce1  I2CMasterIntDisable                                                  
0000fce7  I2CMasterIntEnable                                                   
0000fc4f  I2CMasterSlaveAddrSet                                                
0000d95d  I2CTiva_close                                                        
0000fced  I2CTiva_control                                                      
00015e30  I2CTiva_fxnTable                                                     
0000fb1d  I2CTiva_init                                                         
000077e1  I2CTiva_open                                                         
0000a4d9  I2CTiva_transfer                                                     
000159d4  I2C_config                                                           
00015fd4  I2C_defaultParams                                                    
0000d5e1  I2C_init                                                             
0000b179  IntDisable                                                           
0000b1e1  IntEnable                                                            
0000b449  IntIsEnabled                                                         
0000e21d  InternalUSBHCDSendEvent                                              
0000d9fd  InternalUSBStartOfFrameTick                                          
0000de6d  InternalUSBTickInit                                                  
0000042d  Kentec320x240x16_SSD2119Init                                         
00015e68  LCD                                                                  
00004925  LCDDMAConfigSet                                                      
0000f961  LCDIDDCommandWrite                                                   
00004c1d  LCDIDDConfigSet                                                      
0000f96d  LCDIDDDataWrite                                                      
0000d531  LCDIDDTimingSet                                                      
0000e94f  LCDModeSet                                                           
0000ed75  OTGDeviceDisconnect                                                  
0000f3a1  PWMClockSet                                                          
0000e971  PWMGenConfigure                                                      
0000f979  PWMGenDisable                                                        
0000f985  PWMGenEnable                                                         
0000f5af  PWMGenPeriodGet                                                      
0000f6e5  PWMGenPeriodSet                                                      
0000f5c1  PWMOutputInvert                                                      
0000f5d3  PWMOutputState                                                       
0000ecdf  PWMPulseWidthSet                                                     
00015cee  PWMTiva_MAX_MATCH_VALUE                                              
00015cec  PWMTiva_MAX_PRESCALAR                                                
0000b03b  PWMTiva_close                                                        
0000a239  PWMTiva_control                                                      
00015cd0  PWMTiva_fxnTable                                                     
0000e993  PWMTiva_getPeriodCounts                                              
0000ecfd  PWMTiva_getPeriodMicroSecs                                           
0000de9d  PWMTiva_init                                                         
00004d95  PWMTiva_open                                                         
00006b79  PWMTiva_setDuty                                                      
00015b8c  PWM_config                                                           
00016054  PWM_defaultParams                                                    
0000d619  PWM_init                                                             
0000f5e5  RingBuf_construct                                                    
0000d14d  RingBuf_get                                                          
0000f991  RingBuf_peek                                                         
0000ccc9  RingBuf_put                                                          
0000e249  SDSPITiva_close                                                      
0000fcf3  SDSPITiva_control                                                    
00007059  SDSPITiva_diskIOctrl                                                 
00003cb5  SDSPITiva_diskInitialize                                             
00008709  SDSPITiva_diskRead                                                   
0000f6f5  SDSPITiva_diskStatus                                                 
000078c9  SDSPITiva_diskWrite                                                  
00015fe4  SDSPITiva_fxnTable                                                   
0000f5f7  SDSPITiva_init                                                       
00006d71  SDSPITiva_open                                                       
00015e7c  SDSPI_config                                                         
0001607c  SDSPI_defaultParams                                                  
0000d651  SDSPI_init                                                           
UNDEFED   SHT$$INIT_ARRAY$$Base                                                
UNDEFED   SHT$$INIT_ARRAY$$Limit                                               
0000d349  SPITivaDMA_close                                                     
0000fcf9  SPITivaDMA_control                                                   
00015770  SPITivaDMA_fxnTable                                                  
0000bfe9  SPITivaDMA_hwiFxn                                                    
0000fb27  SPITivaDMA_init                                                      
00007609  SPITivaDMA_open                                                      
000031d7  SPITivaDMA_serviceISR                                                
0000b705  SPITivaDMA_transfer                                                  
0000abeb  SPITivaDMA_transferCancel                                            
00015a04  SPI_config                                                           
00015cf0  SPI_defaultParams                                                    
0000d689  SPI_init                                                             
0000d045  SSIConfigSetExpClk                                                   
0000fb31  SSIDMADisable                                                        
0000fc5f  SSIDMAEnable                                                         
0000f99d  SSIDataGet                                                           
0000f609  SSIDataGetNonBlocking                                                
0000fb3b  SSIDataPut                                                           
0000fb45  SSIDisable                                                           
0000fb4f  SSIEnable                                                            
0000589d  SSIIntClear                                                          
0000fb59  SSIIntDisable                                                        
0000fc67  SSIIntEnable                                                         
0000fd05  SysCtlDelay                                                          
0000f3b5  SysCtlPWMClockSet                                                    
0000da31  SysCtlPeripheralEnable                                               
0000c221  SysCtlPeripheralReset                                                
0000f3c9  SysCtlUSBPLLEnable                                                   
200064c4  TSK_idle                                                             
0000fb63  UARTCharGet                                                          
0000f863  UARTCharGetNonBlocking                                               
0000fb6d  UARTCharPut                                                          
0000f871  UARTCharPutNonBlocking                                               
0000d087  UARTConfigSetExpClk                                                  
0000ed91  UARTDisable                                                          
0000f3dd  UARTEnable                                                           
0000fd0b  UARTFIFOLevelSet                                                     
0000f9a9  UARTFlowControlSet                                                   
00006185  UARTIntClear                                                         
0000fb77  UARTIntDisable                                                       
0000fc6f  UARTIntEnable                                                        
0000fb81  UARTIntStatus                                                        
0000c5d1  UARTTiva_close                                                       
00009eef  UARTTiva_control                                                     
00015ac4  UARTTiva_fxnTable                                                    
0000f9b5  UARTTiva_init                                                        
0000389d  UARTTiva_open                                                        
0000d18d  UARTTiva_read                                                        
0000d993  UARTTiva_readCancel                                                  
00009889  UARTTiva_readPolling                                                 
00009f7b  UARTTiva_write                                                       
0000ca41  UARTTiva_writeCancel                                                 
0000d0c9  UARTTiva_writePolling                                                
0000f069  UART_Params_init                                                     
00015e94  UART_config                                                          
00015bb0  UART_defaultParams                                                   
0000d6c1  UART_init                                                            
0000f081  UART_open                                                            
0000fb8b  UART_read                                                            
0000fb95  UART_write                                                           
0000c03b  ULPIConfigSet                                                        
00008889  USB0OTGModeIntHandler                                                
0000fb9f  USBClockEnable                                                       
0000fba9  USBControllerVersion                                                 
0000c271  USBDCDConfigDescGet                                                  
0000e487  USBDCDConfigDescGetNum                                               
0000f099  USBDCDConfigDescGetSize                                              
0000edad  USBDCDConfigGetInterface                                             
0000d56b  USBDCDConfigGetInterfaceEndpoint                                     
0000edc9  USBDCDStallEP0                                                       
0000fbb3  USBDMAChannelAddressSet                                              
0000f3f1  USBDMAChannelConfigSet                                               
0000fbbd  USBDMAChannelCountSet                                                
0000f62d  USBDMAChannelDisable                                                 
0000f63f  USBDMAChannelEnable                                                  
0000f651  USBDMAChannelIntDisable                                              
0000f663  USBDMAChannelIntEnable                                               
0000fd11  USBDMAChannelIntStatus                                               
0000f87f  USBDMAChannelStatus                                                  
0000e275  USBDescGet                                                           
0000ed1b  USBDescGetInterface                                                  
0000f31d  USBDescGetInterfaceEndpoint                                          
0000e52d  USBDescGetNum                                                        
00006515  USBDevAddrSet                                                        
0000fbc7  USBDevDisconnect                                                     
0000a74d  USBDevEndpointConfigSet                                              
0000e755  USBDevEndpointDataAck                                                
0000dca3  USBDevEndpointStall                                                  
0000c49f  USBDevEndpointStallClear                                             
0000b949  USBDevEndpointStatusClear                                            
0000f88d  USBDevLPMEnable                                                      
00005dd1  USBDeviceConfig                                                      
0000a095  USBDeviceConfigAlternate                                             
00007e1d  USBDeviceEnumHandler                                                 
0000cad1  USBDeviceEnumResetHandler                                            
000055fd  USBDeviceIntHandlerInternal                                          
0000c2c1  USBDeviceResumeTickHandler                                           
0000efb1  USBEndpointDMAChannel                                                
0000c61d  USBEndpointDMAConfigSet                                              
0000e779  USBEndpointDMADisable                                                
0000e79d  USBEndpointDMAEnable                                                 
0000ede5  USBEndpointDataAvail                                                 
0000cd99  USBEndpointDataGet                                                   
0000defd  USBEndpointDataPut                                                   
0000e13b  USBEndpointDataSend                                                  
0000e6bd  USBEndpointDataToggleClear                                           
0000f9c1  USBEndpointPacketCountSet                                            
0000f705  USBEndpointStatus                                                    
0000fc77  USBFIFOAddrGet                                                       
0000d5a5  USBFIFOConfigSet                                                     
0000cb19  USBFIFOFlush                                                         
00007429  USBHCDControlTransfer                                                
0000bd39  USBHCDHubDeviceConnected                                             
0000f9cd  USBHCDHubDeviceDisconnected                                          
0000714d  USBHCDInit                                                           
00007c61  USBHCDMain                                                           
000045f9  USBHCDPipeAllocSize                                                  
00007ef5  USBHCDPipeConfig                                                     
00007519  USBHCDPipeFree                                                       
0000574d  USBHCDPipeRead                                                       
000063ed  USBHCDPipeWrite                                                      
0000f715  USBHCDPowerAutomatic                                                 
0000f9d9  USBHCDPowerConfigInit                                                
0000c669  USBHCDPowerConfigSet                                                 
0000f725  USBHCDRegisterDrivers                                                
0000d6f9  USBHCDReset                                                          
0000c6b5  USBHCDSetAddress                                                     
0000da99  USBHCDSetConfig                                                      
0000f0e1  USBHHubEnumerationComplete                                           
0000f0f9  USBHHubEnumerationError                                              
0000cb61  USBHHubInit                                                          
00004aa5  USBHHubMain                                                          
0000df2d  USBHMSCBlockRead                                                     
0000df5d  USBHMSCBlockWrite                                                    
0000f89b  USBHMSCDriveClose                                                    
0000f405  USBHMSCDriveOpen                                                     
00006c75  USBHMSCDriveReady                                                    
0000d291  USBHSCSIInquiry                                                      
0000ba61  USBHSCSIRead10                                                       
0000d2cf  USBHSCSIReadCapacity                                                 
0000d385  USBHSCSIRequestSense                                                 
0000d731  USBHSCSITestUnitReady                                                
0000babd  USBHSCSIWrite10                                                      
0000f333  USBHostAddrSet                                                       
0000b7c9  USBHostCheckPipes                                                    
00008645  USBHostEndpointConfig                                                
0000eaa1  USBHostEndpointDataAck                                               
0000e555  USBHostEndpointStatusClear                                           
0000e169  USBHostHubAddrSet                                                    
0000160d  USBHostIntHandlerInternal                                            
0000f675  USBHostLPMConfig                                                     
0000fc7f  USBHostMode                                                          
0000ee01  USBHostPwrConfig                                                     
0000f8a9  USBHostPwrDisable                                                    
0000f8b7  USBHostPwrEnable                                                     
0000f687  USBHostRequestIN                                                     
0000f111  USBHostRequestINClear                                                
0000fc87  USBHostRequestStatus                                                 
0000f419  USBHostReset                                                         
0000f42d  USBHostResume                                                        
0000e6e3  USBHostSpeedGet                                                      
0000fbd1  USBHostSuspend                                                       
0000e57d  USBIntEnableControl                                                  
0000f455  USBIntEnableEndpoint                                                 
0000d769  USBIntStatusControl                                                  
0000fbdb  USBIntStatusEndpoint                                                 
0000f9e5  USBLPMIntEnable                                                      
0000fd17  USBLPMIntStatus                                                      
0000fbe5  USBLibDMAAddrGet                                                     
00004f05  USBLibDMAInit                                                        
0000c08d  USBMSCHFatFsTiva_close                                               
00006635  USBMSCHFatFsTiva_control                                             
0000ee1d  USBMSCHFatFsTiva_diskIOctl                                           
0000d20d  USBMSCHFatFsTiva_diskInitialize                                      
0000c701  USBMSCHFatFsTiva_diskRead                                            
0000f129  USBMSCHFatFsTiva_diskStatus                                          
0000c311  USBMSCHFatFsTiva_diskWrite                                           
00015a34  USBMSCHFatFsTiva_fxnTable                                            
0000f8c5  USBMSCHFatFsTiva_init                                                
00004459  USBMSCHFatFsTiva_open                                                
0000dcd5  USBMSCHFatFsTiva_waitForConnect                                      
00015eac  USBMSCHFatFs_config                                                  
00015ff4  USBMSCHFatFs_defaultParams                                           
00015a48  USBMSCHFatFs_eventDriver                                             
0000d7a1  USBMSCHFatFs_init                                                    
0000fbef  USBModeGet                                                           
0000fbf9  USBNumEndpointsGet                                                   
0000fc8f  USBOTGMode                                                           
0000efcb  USBOTGSessionRequest                                                 
0000eac1  USBStackModeSet                                                      
0000f8d3  USBULPIDisable                                                       
0000f8e1  USBULPIEnable                                                        
0000ed39  USBULPIRegRead                                                       
0000ed57  USBULPIRegWrite                                                      
0000fc03  WatchdogEnable                                                       
0000fd1d  WatchdogIntClear                                                     
0000fc97  WatchdogLock                                                         
00008945  WatchdogReloadSet                                                    
0000fc0d  WatchdogResetDisable                                                 
0000fc17  WatchdogResetEnable                                                  
0000f8ef  WatchdogStallDisable                                                 
0000f8fd  WatchdogStallEnable                                                  
0000fc9f  WatchdogTiva_clear                                                   
000077df  WatchdogTiva_close                                                   
0000fd23  WatchdogTiva_control                                                 
00015edc  WatchdogTiva_fxnTable                                                
0000fca7  WatchdogTiva_init                                                    
0000925d  WatchdogTiva_open                                                    
0000ee39  WatchdogTiva_setReload                                               
0000f9f1  WatchdogUnlock                                                       
00015ec4  Watchdog_config                                                      
00016060  Watchdog_defaultParams                                               
0000d7d9  Watchdog_init                                                        
UNDEFED   WiFi_init                                                            
00000000  __ASM__                                                              
200052b8  __CIOBUF_                                                            
0000005e  __ISA__                                                              
00000071  __PLAT__                                                             
20006d54  __STACK_END                                                          
00000300  __STACK_SIZE                                                         
20006c54  __STACK_TOP                                                          
00000092  __TARG__                                                             
00016818  __TI_CINIT_Base                                                      
00016830  __TI_CINIT_Limit                                                     
000167fc  __TI_Handler_Table_Base                                              
00016808  __TI_Handler_Table_Limit                                             
000093a5  __TI_auto_init                                                       
20006a08  __TI_cleanup_ptr                                                     
0000f90b  __TI_decompress_none                                                 
0000fd2f  __TI_decompress_rle24                                                
20006a0c  __TI_dtors_ptr                                                       
0000b2e3  __TI_readmsg                                                         
00016398  __TI_static_base__                                                   
0000b2b1  __TI_writemsg                                                        
0000f9fd  __TI_zero_init                                                       
000000b8  __TRDR__                                                             
0000a841  __aeabi_memclr                                                       
0000a841  __aeabi_memclr4                                                      
0000a841  __aeabi_memclr8                                                      
00009621  __aeabi_memcpy                                                       
00009621  __aeabi_memcpy4                                                      
00009621  __aeabi_memcpy8                                                      
0000a843  __aeabi_memset                                                       
0000a843  __aeabi_memset4                                                      
0000a843  __aeabi_memset8                                                      
0000d10b  __aeabi_uidiv                                                        
0000d10b  __aeabi_uidivmod                                                     
ffffffff  __binit__                                                            
ffffffff  __c_args__                                                           
20006a54  __stack                                                              
0000fd29  __xdc__init                                                          
200063dc  __xdc__init__addr                                                    
0000f141  _args_main                                                           
0000bc89  _c_int00                                                             
0000108b  _callback_Button_Down                                                
0000109f  _callback_Button_Select                                              
00001077  _callback_Button_Up                                                  
000010b3  _callback_Festo_Riser_Down                                           
000010c7  _callback_Festo_Riser_Up                                             
20006a00  _lock                                                                
0000f48b  _nop                                                                 
0000f483  _register_lock                                                       
0000f47d  _register_unlock                                                     
00001001  _task_Festo                                                          
00000fc1  _task_LCD                                                            
20006a04  _unlock                                                              
0000ce25  abort                                                                
ffffffff  binit                                                                
200060bc  buffer                                                               
20006a28  bufferCounter                                                        
200040cc  bufferSem                                                            
0000c799  copy_in                                                              
0000e2cd  disk_register                                                        
0000e5f5  disk_unregister                                                      
00015e64  echo                                                                 
00000f13  echoFxn                                                              
00016004  emacHWAttrs                                                          
200053f8  emacObjects                                                          
200068ac  enablePrefetch                                                       
0000ce2d  exit                                                                 
0000cddd  f_mount                                                              
0000efe5  ff_cre_syncobj                                                       
0000f919  ff_del_syncobj                                                       
200069e8  g_bUSBTimerInitialized                                               
2000625c  g_eOTGModeState                                                      
200069f4  g_iUSBMode                                                           
200061b0  g_pfnTickHandlers                                                    
200061f8  g_ppsDevInfo                                                         
20004530  g_psDCDInst                                                          
00016014  g_psDefaultCodePointMapTable                                         
20006230  g_pvTickInstance                                                     
00015400  g_sFontCmss18b                                                       
00015aec  g_sKentec320x240x16_SSD2119                                          
00016024  g_sUSBHostMSCClassDriver                                             
200069ec  g_ui32CurrentUSBTick                                                 
20006250  g_ui32PollRate                                                       
200069f0  g_ui32USBSOFCount                                                    
200069f8  g_ui32WaitTicks                                                      
200069c8  gpioCallbackFunctions                                                
200066c4  gpioPinConfigs                                                       
00015bd4  i2cTivaHWAttrs                                                       
20005800  i2cTivaObjects                                                       
200069c1  macAddress                                                           
000010db  main                                                                 
20006a50  main_func_sp                                                         
00009621  memcpy                                                               
0000a849  memset                                                               
200068b0  phyCounter                                                           
00015ef4  pwmTivaHWAttrs                                                       
20005af0  pwmTivaObjects                                                       
00015bf8  sdspiTivaHWattrs                                                     
20005078  sdspiTivaObjects                                                     
0001561c  spiTivaDMAHWAttrs                                                    
20005c00  spiTivaDMAObjects                                                    
20006260  spiTivaDMAscratchBuf                                                 
0000f491  strcpy                                                               
0000f4a5  strlen                                                               
000160ac  ti_catalog_arm_cortexm4_tiva_ce_Boot_A_mustNotUseEnhancedClockMode__C
000160b0  ti_catalog_arm_cortexm4_tiva_ce_Boot_Module__diagsEnabled__C         
000160b4  ti_catalog_arm_cortexm4_tiva_ce_Boot_Module__diagsIncluded__C        
000160b8  ti_catalog_arm_cortexm4_tiva_ce_Boot_Module__diagsMask__C            
0001520e  ti_catalog_arm_cortexm4_tiva_ce_Boot_Module__id__C                   
0000f6d5  ti_catalog_arm_cortexm4_tiva_ce_Boot_init__I                         
00003ab1  ti_catalog_arm_cortexm4_tiva_ce_Boot_sysCtlClockFreqSetI__I          
000099b9  ti_catalog_arm_cortexm4_tiva_ce_Boot_sysCtlClockFreqSet__E           
20006968  ti_sysbios_BIOS_Module__state__V                                     
0000f1e9  ti_sysbios_BIOS_RtsGateProxy_Handle__label__S                        
0000e851  ti_sysbios_BIOS_RtsGateProxy_Object__delete__S                       
0000fa6d  ti_sysbios_BIOS_RtsGateProxy_Params__init__S                         
00008a05  ti_sysbios_BIOS_RtsGateProxy_enter__E                                
00008ac5  ti_sysbios_BIOS_RtsGateProxy_leave__E                                
0000fd81  ti_sysbios_BIOS_RtsGateProxy_query__E                                
0000e2f9  ti_sysbios_BIOS_atExitFunc__I                                        
0000e7e5  ti_sysbios_BIOS_errorRaiseHook__I                                    
0000f349  ti_sysbios_BIOS_exitFunc__I                                          
0000f749  ti_sysbios_BIOS_getCpuFreq__E                                        
00008c3f  ti_sysbios_BIOS_nullFunc__I                                          
0000e809  ti_sysbios_BIOS_registerRTSLock__I                                   
0000e82d  ti_sysbios_BIOS_removeRTSLock__I                                     
0000eb01  ti_sysbios_BIOS_rtsLock__I                                           
0000f159  ti_sysbios_BIOS_rtsUnlock__I                                         
0000f759  ti_sysbios_BIOS_setThreadType__E                                     
0000eb21  ti_sysbios_BIOS_startFunc__I                                         
0000f769  ti_sysbios_BIOS_start__E                                             
20006800  ti_sysbios_family_arm_lm4_Timer_Module_State_0_device__A             
20006284  ti_sysbios_family_arm_lm4_Timer_Module_State_0_handles__A            
2000627c  ti_sysbios_family_arm_lm4_Timer_Module__root__V                      
0000f171  ti_sysbios_family_arm_lm4_Timer_Module__startupDone__F               
0000f171  ti_sysbios_family_arm_lm4_Timer_Module__startupDone__S               
200062a4  ti_sysbios_family_arm_lm4_Timer_Module__state__V                     
0000b4b1  ti_sysbios_family_arm_lm4_Timer_Module_startup__E                    
20006644  ti_sysbios_family_arm_lm4_Timer_Object__table__V                     
000160bc  ti_sysbios_family_arm_lm4_Timer_enableFunc__C                        
00008fc1  ti_sysbios_family_arm_lm4_Timer_enableTimers__I                      
00008e61  ti_sysbios_family_arm_lm4_Timer_enableTiva__I                        
0000fa09  ti_sysbios_family_arm_lm4_Timer_getMaxTicks__E                       
0000fd71  ti_sysbios_family_arm_lm4_Timer_getPeriod__E                         
0000b829  ti_sysbios_family_arm_lm4_Timer_isrStub__E                           
0000fcc7  ti_sysbios_family_arm_lm4_Timer_masterDisable__I                     
00008cf5  ti_sysbios_family_arm_lm4_Timer_masterEnable__I                      
000160c0  ti_sysbios_family_arm_lm4_Timer_numTimerDevices__C                   
000051e1  ti_sysbios_family_arm_lm4_Timer_start__E                             
000160c4  ti_sysbios_family_arm_lm4_Timer_startupNeeded__C                     
0000d251  ti_sysbios_family_arm_lm4_Timer_startup__E                           
0000cea9  ti_sysbios_family_arm_lm4_Timer_stop__E                              
0000e9b9  ti_sysbios_family_arm_lm4_Timer_write__I                             
200062b0  ti_sysbios_family_arm_lm4_TimestampProvider_Module__state__V         
0000fd41  ti_sysbios_family_arm_lm4_TimestampProvider_Module_startup__E        
00007fd1  ti_sysbios_family_arm_lm4_TimestampProvider_get32__E                 
00004929  ti_sysbios_family_arm_lm4_TimestampProvider_get64__E                 
0000f749  ti_sysbios_family_arm_lm4_TimestampProvider_getFreq__E               
0000f779  ti_sysbios_family_arm_lm4_TimestampProvider_rolloverFunc__E          
0000fa19  ti_sysbios_family_arm_lm4_TimestampProvider_startTimer__E            
00015fd2  ti_sysbios_family_arm_lm4_TimestampProvider_useClockTimer__C         
000160c8  ti_sysbios_family_arm_m3_Hwi_E_NMI__C                                
000160cc  ti_sysbios_family_arm_m3_Hwi_E_alreadyDefined__C                     
000160d0  ti_sysbios_family_arm_m3_Hwi_E_busFault__C                           
000160d4  ti_sysbios_family_arm_m3_Hwi_E_debugMon__C                           
000160d8  ti_sysbios_family_arm_m3_Hwi_E_hardFault__C                          
000160dc  ti_sysbios_family_arm_m3_Hwi_E_memFault__C                           
000160e0  ti_sysbios_family_arm_m3_Hwi_E_noIsr__C                              
000160e4  ti_sysbios_family_arm_m3_Hwi_E_reserved__C                           
000160e8  ti_sysbios_family_arm_m3_Hwi_E_svCall__C                             
000160ec  ti_sysbios_family_arm_m3_Hwi_E_usageFault__C                         
0000f189  ti_sysbios_family_arm_m3_Hwi_Handle__label__S                        
0000e329  ti_sysbios_family_arm_m3_Hwi_Instance_finalize__E                    
00009ae9  ti_sysbios_family_arm_m3_Hwi_Instance_init__E                        
000160f0  ti_sysbios_family_arm_m3_Hwi_LD_end__C                               
000160f4  ti_sysbios_family_arm_m3_Hwi_LM_begin__C                             
200062c0  ti_sysbios_family_arm_m3_Hwi_Module_State_0_excActive__A             
200062c4  ti_sysbios_family_arm_m3_Hwi_Module_State_0_excContext__A            
200062c8  ti_sysbios_family_arm_m3_Hwi_Module_State_0_excStack__A              
000160f8  ti_sysbios_family_arm_m3_Hwi_Module__diagsEnabled__C                 
000160fc  ti_sysbios_family_arm_m3_Hwi_Module__diagsIncluded__C                
00016100  ti_sysbios_family_arm_m3_Hwi_Module__diagsMask__C                    
0001635c  ti_sysbios_family_arm_m3_Hwi_Module__id__C                           
0001635e  ti_sysbios_family_arm_m3_Hwi_Module__loggerDefined__C                
00016104  ti_sysbios_family_arm_m3_Hwi_Module__loggerFxn1__C                   
00016108  ti_sysbios_family_arm_m3_Hwi_Module__loggerFxn8__C                   
0001610c  ti_sysbios_family_arm_m3_Hwi_Module__loggerObj__C                    
200062b8  ti_sysbios_family_arm_m3_Hwi_Module__root__V                         
0000f1a1  ti_sysbios_family_arm_m3_Hwi_Module__startupDone__F                  
0000f1a1  ti_sysbios_family_arm_m3_Hwi_Module__startupDone__S                  
20006878  ti_sysbios_family_arm_m3_Hwi_Module__state__V                        
00008581  ti_sysbios_family_arm_m3_Hwi_Module_startup__E                       
00016110  ti_sysbios_family_arm_m3_Hwi_NUM_INTERRUPTS__C                       
00015d10  ti_sysbios_family_arm_m3_Hwi_Object__DESC__C                         
00015a94  ti_sysbios_family_arm_m3_Hwi_Object__PARAMS__C                       
00016114  ti_sysbios_family_arm_m3_Hwi_Object__count__C                        
0000ee71  ti_sysbios_family_arm_m3_Hwi_Object__destruct__S                     
0000f4b9  ti_sysbios_family_arm_m3_Hwi_Object__get__S                          
200068e0  ti_sysbios_family_arm_m3_Hwi_Object__table__V                        
0000fa25  ti_sysbios_family_arm_m3_Hwi_Params__init__S                         
00016118  ti_sysbios_family_arm_m3_Hwi_ccr__C                                  
0000eb41  ti_sysbios_family_arm_m3_Hwi_clearInterrupt__E                       
0000bd91  ti_sysbios_family_arm_m3_Hwi_construct                               
0000b515  ti_sysbios_family_arm_m3_Hwi_create                                  
00008dad  ti_sysbios_family_arm_m3_Hwi_destruct                                
0000fa31  ti_sysbios_family_arm_m3_Hwi_disableFxn__E                           
0000cba9  ti_sysbios_family_arm_m3_Hwi_disableInterrupt__E                     
00006519  ti_sysbios_family_arm_m3_Hwi_dispatchC__I                            
20004d18  ti_sysbios_family_arm_m3_Hwi_dispatchTable                           
00007241  ti_sysbios_family_arm_m3_Hwi_dispatch__I                             
0000fd91  ti_sysbios_family_arm_m3_Hwi_doSwiRestore__I                         
0000ee91  ti_sysbios_family_arm_m3_Hwi_doTaskRestore__I                        
0000cbf1  ti_sysbios_family_arm_m3_Hwi_enableInterrupt__E                      
00004c21  ti_sysbios_family_arm_m3_Hwi_excBusFault__I                          
00008949  ti_sysbios_family_arm_m3_Hwi_excDebugMon__I                          
000011d9  ti_sysbios_family_arm_m3_Hwi_excDumpRegs__I                          
0000eb61  ti_sysbios_family_arm_m3_Hwi_excHandlerAsm__I                        
0001611c  ti_sysbios_family_arm_m3_Hwi_excHandlerFunc__C                       
000040a1  ti_sysbios_family_arm_m3_Hwi_excHandlerMax__I                        
0000eb81  ti_sysbios_family_arm_m3_Hwi_excHandler__I                           
00008a09  ti_sysbios_family_arm_m3_Hwi_excHardFault__I                         
00016084  ti_sysbios_family_arm_m3_Hwi_excHookFuncs__A                         
00016120  ti_sysbios_family_arm_m3_Hwi_excHookFuncs__C                         
00005c89  ti_sysbios_family_arm_m3_Hwi_excMemFault__I                          
0000db39  ti_sysbios_family_arm_m3_Hwi_excNmi__I                               
0000d811  ti_sysbios_family_arm_m3_Hwi_excNoIsr__I                             
0000cc39  ti_sysbios_family_arm_m3_Hwi_excReserved__I                          
0000d401  ti_sysbios_family_arm_m3_Hwi_excSvCall__I                            
00005349  ti_sysbios_family_arm_m3_Hwi_excUsageFault__I                        
0000cef1  ti_sysbios_family_arm_m3_Hwi_getStackInfo__E                         
00009b81  ti_sysbios_family_arm_m3_Hwi_initNVIC__E                             
0000bde9  ti_sysbios_family_arm_m3_Hwi_initStacks__E                           
00016124  ti_sysbios_family_arm_m3_Hwi_nullIsrFunc__C                          
e000e000  ti_sysbios_family_arm_m3_Hwi_nvic                                    
0000e709  ti_sysbios_family_arm_m3_Hwi_pendSV__I                               
0000aa19  ti_sysbios_family_arm_m3_Hwi_postInit__I                             
00016128  ti_sysbios_family_arm_m3_Hwi_priGroup__C                             
20000000  ti_sysbios_family_arm_m3_Hwi_ramVectors                              
00000000  ti_sysbios_family_arm_m3_Hwi_resetVectors                            
0000fd49  ti_sysbios_family_arm_m3_Hwi_restoreFxn__E                           
0000e72d  ti_sysbios_family_arm_m3_Hwi_return                                  
0000fcd1  ti_sysbios_family_arm_m3_Hwi_startup__E                              
0000f4d1  ti_sysbios_family_arm_m3_Hwi_switchFromBootStack__E                  
00008f0d  ti_sysbios_family_arm_m3_TaskSupport_Module__startupDone__S          
0000a1ad  ti_sysbios_family_arm_m3_TaskSupport_buildTaskStack                  
0000fa41  ti_sysbios_family_arm_m3_TaskSupport_checkStack__E                   
0000fa51  ti_sysbios_family_arm_m3_TaskSupport_getStackAlignment__E            
0000f789  ti_sysbios_family_arm_m3_TaskSupport_glue                            
0001612c  ti_sysbios_family_arm_m3_TaskSupport_stackAlignment__C               
0000d441  ti_sysbios_family_arm_m3_TaskSupport_start__E                        
0000f1b9  ti_sysbios_family_arm_m3_TaskSupport_swap__E                         
0000f1d1  ti_sysbios_gates_GateHwi_Handle__label__S                            
0000fd99  ti_sysbios_gates_GateHwi_Instance_init__E                            
00015c1c  ti_sysbios_gates_GateHwi_Module__FXNS__C                             
200062cc  ti_sysbios_gates_GateHwi_Module__root__V                             
00015d30  ti_sysbios_gates_GateHwi_Object__DESC__C                             
00015f0c  ti_sysbios_gates_GateHwi_Object__PARAMS__C                           
0000dfbd  ti_sysbios_gates_GateHwi_Object__create__S                           
0000eba1  ti_sysbios_gates_GateHwi_Object__delete__S                           
200062d4  ti_sysbios_gates_GateHwi_Object__table__V                            
0000fa61  ti_sysbios_gates_GateHwi_enter__E                                    
0000fd51  ti_sysbios_gates_GateHwi_leave__E                                    
0000fd79  ti_sysbios_gates_GateHwi_query__E                                    
00016130  ti_sysbios_gates_GateMutex_A_badContext__C                           
0000f1e9  ti_sysbios_gates_GateMutex_Handle__label__S                          
00016134  ti_sysbios_gates_GateMutex_Instance_State_sem__O                     
0000f799  ti_sysbios_gates_GateMutex_Instance_finalize__E                      
0000eeb1  ti_sysbios_gates_GateMutex_Instance_init__E                          
00015c40  ti_sysbios_gates_GateMutex_Module__FXNS__C                           
00016138  ti_sysbios_gates_GateMutex_Module__diagsEnabled__C                   
0001613c  ti_sysbios_gates_GateMutex_Module__diagsIncluded__C                  
00016140  ti_sysbios_gates_GateMutex_Module__diagsMask__C                      
00016360  ti_sysbios_gates_GateMutex_Module__id__C                             
200062d8  ti_sysbios_gates_GateMutex_Module__root__V                           
00015d50  ti_sysbios_gates_GateMutex_Object__DESC__C                           
00015f24  ti_sysbios_gates_GateMutex_Object__PARAMS__C                         
0000dfed  ti_sysbios_gates_GateMutex_Object__create__S                         
0000e851  ti_sysbios_gates_GateMutex_Object__delete__S                         
0000ebc1  ti_sysbios_gates_GateMutex_Object__destruct__S                       
20006840  ti_sysbios_gates_GateMutex_Object__table__V                          
0000fa6d  ti_sysbios_gates_GateMutex_Params__init__S                           
0000e355  ti_sysbios_gates_GateMutex_construct                                 
00008fbd  ti_sysbios_gates_GateMutex_destruct                                  
00008c41  ti_sysbios_gates_GateMutex_enter__E                                  
0000f201  ti_sysbios_gates_GateMutex_leave__E                                  
0000fd81  ti_sysbios_gates_GateMutex_query__E                                  
0000f189  ti_sysbios_hal_Hwi_HwiProxy_Handle__label__S                         
0000f1a1  ti_sysbios_hal_Hwi_HwiProxy_Module__startupDone__S                   
0000fa25  ti_sysbios_hal_Hwi_HwiProxy_Params__init__S                          
0000eb41  ti_sysbios_hal_Hwi_HwiProxy_clearInterrupt__E                        
0000cba9  ti_sysbios_hal_Hwi_HwiProxy_disableInterrupt__E                      
0000fa31  ti_sysbios_hal_Hwi_HwiProxy_disable__E                               
0000cbf1  ti_sysbios_hal_Hwi_HwiProxy_enableInterrupt__E                       
0000cef1  ti_sysbios_hal_Hwi_HwiProxy_getStackInfo__E                          
0000fd49  ti_sysbios_hal_Hwi_HwiProxy_restore__E                               
0000fcd1  ti_sysbios_hal_Hwi_HwiProxy_startup__E                               
0000f4d1  ti_sysbios_hal_Hwi_HwiProxy_switchFromBootStack__E                   
200062e0  ti_sysbios_hal_Hwi_Module__root__V                                   
0000f699  ti_sysbios_hal_Hwi_Module_startup__E                                 
0000dd39  ti_sysbios_hal_Hwi_initStack                                         
00016144  ti_sysbios_heaps_HeapMem_A_align__C                                  
00016148  ti_sysbios_heaps_HeapMem_A_heapSize__C                               
0001614c  ti_sysbios_heaps_HeapMem_A_invalidFree__C                            
00016150  ti_sysbios_heaps_HeapMem_A_zeroBlock__C                              
00016154  ti_sysbios_heaps_HeapMem_E_memory__C                                 
0000f219  ti_sysbios_heaps_HeapMem_Handle__label__S                            
20000400  ti_sysbios_heaps_HeapMem_Instance_State_0_buf__A                     
00005f11  ti_sysbios_heaps_HeapMem_Instance_init__E                            
0000f1e9  ti_sysbios_heaps_HeapMem_Module_GateProxy_Handle__label__S           
0000e851  ti_sysbios_heaps_HeapMem_Module_GateProxy_Object__delete__S          
0000fa6d  ti_sysbios_heaps_HeapMem_Module_GateProxy_Params__init__S            
00009ae5  ti_sysbios_heaps_HeapMem_Module_GateProxy_enter__E                   
00009b7d  ti_sysbios_heaps_HeapMem_Module_GateProxy_leave__E                   
0000fd81  ti_sysbios_heaps_HeapMem_Module_GateProxy_query__E                   
00015b14  ti_sysbios_heaps_HeapMem_Module__FXNS__C                             
00016158  ti_sysbios_heaps_HeapMem_Module__diagsEnabled__C                     
0001615c  ti_sysbios_heaps_HeapMem_Module__diagsIncluded__C                    
00016160  ti_sysbios_heaps_HeapMem_Module__diagsMask__C                        
00016164  ti_sysbios_heaps_HeapMem_Module__gateObj__C                          
00016362  ti_sysbios_heaps_HeapMem_Module__id__C                               
200062e8  ti_sysbios_heaps_HeapMem_Module__root__V                             
00015d70  ti_sysbios_heaps_HeapMem_Object__DESC__C                             
00015c64  ti_sysbios_heaps_HeapMem_Object__PARAMS__C                           
00016168  ti_sysbios_heaps_HeapMem_Object__count__C                            
0000e01d  ti_sysbios_heaps_HeapMem_Object__create__S                           
0000ebe1  ti_sysbios_heaps_HeapMem_Object__delete__S                           
0000f4e5  ti_sysbios_heaps_HeapMem_Object__get__S                              
200062f0  ti_sysbios_heaps_HeapMem_Object__table__V                            
00003431  ti_sysbios_heaps_HeapMem_alloc__E                                    
000031d9  ti_sysbios_heaps_HeapMem_free__E                                     
0000c7e9  ti_sysbios_heaps_HeapMem_getStats__E                                 
0000d481  ti_sysbios_heaps_HeapMem_init__I                                     
0000fd59  ti_sysbios_heaps_HeapMem_isBlocking__E                               
0001616c  ti_sysbios_heaps_HeapMem_reqAlign__C                                 
00016170  ti_sysbios_knl_Clock_A_badThreadType__C                              
00009301  ti_sysbios_knl_Clock_Instance_finalize__E                            
00006639  ti_sysbios_knl_Clock_Instance_init__E                                
00016174  ti_sysbios_knl_Clock_LM_begin__C                                     
00016178  ti_sysbios_knl_Clock_LM_tick__C                                      
0001617c  ti_sysbios_knl_Clock_LW_delayed__C                                   
00016180  ti_sysbios_knl_Clock_Module_State_clockQ__O                          
00016184  ti_sysbios_knl_Clock_Module__diagsEnabled__C                         
00016188  ti_sysbios_knl_Clock_Module__diagsIncluded__C                        
0001618c  ti_sysbios_knl_Clock_Module__diagsMask__C                            
00016364  ti_sysbios_knl_Clock_Module__id__C                                   
00016366  ti_sysbios_knl_Clock_Module__loggerDefined__C                        
00016190  ti_sysbios_knl_Clock_Module__loggerFxn1__C                           
00016194  ti_sysbios_knl_Clock_Module__loggerFxn2__C                           
00016198  ti_sysbios_knl_Clock_Module__loggerObj__C                            
20006308  ti_sysbios_knl_Clock_Module__root__V                                 
20006910  ti_sysbios_knl_Clock_Module__state__V                                
0000e879  ti_sysbios_knl_Clock_Module_startup__E                               
00015d90  ti_sysbios_knl_Clock_Object__DESC__C                                 
00015c88  ti_sysbios_knl_Clock_Object__PARAMS__C                               
0000ec01  ti_sysbios_knl_Clock_Object__destruct__S                             
0000fa79  ti_sysbios_knl_Clock_Params__init__S                                 
0000f171  ti_sysbios_knl_Clock_TimerProxy_Module__startupDone__S               
00009c15  ti_sysbios_knl_Clock_TimerProxy_getMaxTicks__E                       
00009d3d  ti_sysbios_knl_Clock_TimerProxy_getPeriod__E                         
0000d251  ti_sysbios_knl_Clock_TimerProxy_startup__E                           
0000db6d  ti_sysbios_knl_Clock_construct                                       
0000a6cd  ti_sysbios_knl_Clock_destruct                                        
0000e381  ti_sysbios_knl_Clock_doTick__I                                       
0000b889  ti_sysbios_knl_Clock_logTick__E                                      
0000aa91  ti_sysbios_knl_Clock_start__E                                        
0000fd61  ti_sysbios_knl_Clock_stop__E                                         
00006189  ti_sysbios_knl_Clock_workFunc__E                                     
0001619c  ti_sysbios_knl_Event_A_badContext__C                                 
000161a0  ti_sysbios_knl_Event_A_eventInUse__C                                 
000161a4  ti_sysbios_knl_Event_A_nullEventId__C                                
000161a8  ti_sysbios_knl_Event_A_nullEventMasks__C                             
000161ac  ti_sysbios_knl_Event_A_pendTaskDisabled__C                           
000161b0  ti_sysbios_knl_Event_Instance_State_pendQ__O                         
000161b4  ti_sysbios_knl_Event_LM_pend__C                                      
000161b8  ti_sysbios_knl_Event_LM_post__C                                      
000161bc  ti_sysbios_knl_Event_Module__diagsEnabled__C                         
000161c0  ti_sysbios_knl_Event_Module__diagsIncluded__C                        
000161c4  ti_sysbios_knl_Event_Module__diagsMask__C                            
00016368  ti_sysbios_knl_Event_Module__id__C                                   
0001636a  ti_sysbios_knl_Event_Module__loggerDefined__C                        
000161c8  ti_sysbios_knl_Event_Module__loggerFxn4__C                           
000161cc  ti_sysbios_knl_Event_Module__loggerFxn8__C                           
000161d0  ti_sysbios_knl_Event_Module__loggerObj__C                            
20006310  ti_sysbios_knl_Event_Module__root__V                                 
2000631c  ti_sysbios_knl_Event_Object__table__V                                
0000dd71  ti_sysbios_knl_Event_pendTimeout__I                                  
00001d71  ti_sysbios_knl_Event_pend__E                                         
000058a1  ti_sysbios_knl_Event_post__E                                         
0000f6b1  ti_sysbios_knl_Event_sync__E                                         
000161d4  ti_sysbios_knl_Idle_funcList__A                                      
0001608c  ti_sysbios_knl_Idle_funcList__C                                      
0000f929  ti_sysbios_knl_Idle_loop__E                                          
0000ec21  ti_sysbios_knl_Idle_run__E                                           
200040d0  ti_sysbios_knl_Mailbox_Instance_State_0_allocBuf__A                  
000161d8  ti_sysbios_knl_Mailbox_Instance_State_freeQue__O                     
20006334  ti_sysbios_knl_Mailbox_Module__root__V                               
0000a349  ti_sysbios_knl_Mailbox_Module_startup__E                             
000161dc  ti_sysbios_knl_Mailbox_Object__count__C                              
0000f4f9  ti_sysbios_knl_Mailbox_Object__get__S                                
2000676c  ti_sysbios_knl_Mailbox_Object__table__V                              
000161e0  ti_sysbios_knl_Mailbox_maxTypeAlign__C                               
0000fd69  ti_sysbios_knl_Queue_Instance_init__E                                
2000633c  ti_sysbios_knl_Queue_Module__root__V                                 
00015db0  ti_sysbios_knl_Queue_Object__DESC__C                                 
00015f3c  ti_sysbios_knl_Queue_Object__PARAMS__C                               
0000eecd  ti_sysbios_knl_Queue_Object__destruct__S                             
0000fa85  ti_sysbios_knl_Queue_Object__get__S                                  
0000e3ad  ti_sysbios_knl_Queue_construct                                       
0000aa8d  ti_sysbios_knl_Queue_destruct                                        
0000f939  ti_sysbios_knl_Queue_empty__E                                        
000161e4  ti_sysbios_knl_Semaphore_A_badContext__C                             
000161e8  ti_sysbios_knl_Semaphore_A_overflow__C                               
000161ec  ti_sysbios_knl_Semaphore_A_pendTaskDisabled__C                       
000161f0  ti_sysbios_knl_Semaphore_Instance_State_pendQ__O                     
0000e621  ti_sysbios_knl_Semaphore_Instance_finalize__E                        
0000acd1  ti_sysbios_knl_Semaphore_Instance_init__E                            
000161f4  ti_sysbios_knl_Semaphore_LM_pend__C                                  
000161f8  ti_sysbios_knl_Semaphore_LM_post__C                                  
000161fc  ti_sysbios_knl_Semaphore_Module__diagsEnabled__C                     
00016200  ti_sysbios_knl_Semaphore_Module__diagsIncluded__C                    
00016204  ti_sysbios_knl_Semaphore_Module__diagsMask__C                        
0001636c  ti_sysbios_knl_Semaphore_Module__id__C                               
0001636e  ti_sysbios_knl_Semaphore_Module__loggerDefined__C                    
00016208  ti_sysbios_knl_Semaphore_Module__loggerFxn2__C                       
0001620c  ti_sysbios_knl_Semaphore_Module__loggerFxn4__C                       
00016210  ti_sysbios_knl_Semaphore_Module__loggerObj__C                        
20006344  ti_sysbios_knl_Semaphore_Module__root__V                             
00015dd0  ti_sysbios_knl_Semaphore_Object__DESC__C                             
00015cac  ti_sysbios_knl_Semaphore_Object__PARAMS__C                           
0000e89d  ti_sysbios_knl_Semaphore_Object__delete__S                           
0000ec41  ti_sysbios_knl_Semaphore_Object__destruct__S                         
0000fa91  ti_sysbios_knl_Semaphore_Params__init__S                             
0000e04d  ti_sysbios_knl_Semaphore_construct                                   
0000dba1  ti_sysbios_knl_Semaphore_create                                      
0000accd  ti_sysbios_knl_Semaphore_delete                                      
0000ae1d  ti_sysbios_knl_Semaphore_destruct                                    
00016214  ti_sysbios_knl_Semaphore_eventPost__C                                
00016218  ti_sysbios_knl_Semaphore_eventSync__C                                
0000dda9  ti_sysbios_knl_Semaphore_pendTimeout__I                              
00002431  ti_sysbios_knl_Semaphore_pend__E                                     
000059f1  ti_sysbios_knl_Semaphore_post__E                                     
0001621c  ti_sysbios_knl_Task_A_badPriority__C                                 
00016220  ti_sysbios_knl_Task_A_badTaskState__C                                
00016224  ti_sysbios_knl_Task_A_badThreadType__C                               
00016228  ti_sysbios_knl_Task_A_badTimeout__C                                  
0001622c  ti_sysbios_knl_Task_A_noPendElem__C                                  
00016230  ti_sysbios_knl_Task_A_sleepTaskDisabled__C                           
00016234  ti_sysbios_knl_Task_E_spOutOfBounds__C                               
00016238  ti_sysbios_knl_Task_E_stackOverflow__C                               
0000f231  ti_sysbios_knl_Task_Handle__label__S                                 
20002400  ti_sysbios_knl_Task_Instance_State_0_stack__A                        
20002700  ti_sysbios_knl_Task_Instance_State_1_stack__A                        
20002f00  ti_sysbios_knl_Task_Instance_State_2_stack__A                        
20003200  ti_sysbios_knl_Task_Instance_State_3_stack__A                        
00003671  ti_sysbios_knl_Task_Instance_finalize__E                             
00004291  ti_sysbios_knl_Task_Instance_init__E                                 
0001623c  ti_sysbios_knl_Task_LD_block__C                                      
00016240  ti_sysbios_knl_Task_LD_exit__C                                       
00016244  ti_sysbios_knl_Task_LD_ready__C                                      
00016248  ti_sysbios_knl_Task_LM_sleep__C                                      
0001624c  ti_sysbios_knl_Task_LM_switch__C                                     
20006378  ti_sysbios_knl_Task_Module_State_0_idleTask__A                       
20006358  ti_sysbios_knl_Task_Module_State_0_readyQ__A                         
00016250  ti_sysbios_knl_Task_Module_State_inactiveQ__O                        
00016254  ti_sysbios_knl_Task_Module__diagsEnabled__C                          
00016258  ti_sysbios_knl_Task_Module__diagsIncluded__C                         
0001625c  ti_sysbios_knl_Task_Module__diagsMask__C                             
00016370  ti_sysbios_knl_Task_Module__id__C                                    
00016372  ti_sysbios_knl_Task_Module__loggerDefined__C                         
00016260  ti_sysbios_knl_Task_Module__loggerFxn2__C                            
00016264  ti_sysbios_knl_Task_Module__loggerFxn4__C                            
00016268  ti_sysbios_knl_Task_Module__loggerObj__C                             
2000634c  ti_sysbios_knl_Task_Module__root__V                                  
200067bc  ti_sysbios_knl_Task_Module__state__V                                 
0000bb19  ti_sysbios_knl_Task_Module_startup__E                                
00015df0  ti_sysbios_knl_Task_Object__DESC__C                                  
00015964  ti_sysbios_knl_Task_Object__PARAMS__C                                
0001626c  ti_sysbios_knl_Task_Object__count__C                                 
0000eee9  ti_sysbios_knl_Task_Object__destruct__S                              
0000f7a9  ti_sysbios_knl_Task_Object__get__S                                   
200063e0  ti_sysbios_knl_Task_Object__table__V                                 
0000fa9d  ti_sysbios_knl_Task_Params__init__S                                  
00008f0d  ti_sysbios_knl_Task_SupportProxy_Module__startupDone__S              
0000fa41  ti_sysbios_knl_Task_SupportProxy_checkStack__E                       
0000fa51  ti_sysbios_knl_Task_SupportProxy_getStackAlignment__E                
0000d441  ti_sysbios_knl_Task_SupportProxy_start__E                            
0000f1b9  ti_sysbios_knl_Task_SupportProxy_swap__E                             
00016270  ti_sysbios_knl_Task_allBlockedFunc__C                                
0000c839  ti_sysbios_knl_Task_allBlockedFunction__I                            
00009069  ti_sysbios_knl_Task_blockI__E                                        
00008cf9  ti_sysbios_knl_Task_checkStacks__E                                   
0000beed  ti_sysbios_knl_Task_construct                                        
00016274  ti_sysbios_knl_Task_defaultStackHeap__C                              
00016278  ti_sysbios_knl_Task_defaultStackSize__C                              
0000b4ad  ti_sysbios_knl_Task_destruct                                         
0000f7b9  ti_sysbios_knl_Task_disable__E                                       
0000ef09  ti_sysbios_knl_Task_enter__I                                         
00009c19  ti_sysbios_knl_Task_exit__E                                          
00016374  ti_sysbios_knl_Task_initStackFlag__C                                 
0001627c  ti_sysbios_knl_Task_numConstructedTasks__C                           
00016280  ti_sysbios_knl_Task_numPriorities__C                                 
00009111  ti_sysbios_knl_Task_postInit__I                                      
0000d849  ti_sysbios_knl_Task_processVitalTaskFlag__I                          
0000e8c1  ti_sysbios_knl_Task_restore__E                                       
00008259  ti_sysbios_knl_Task_schedule__I                                      
0000f001  ti_sysbios_knl_Task_sleepTimeout__I                                  
00003ea9  ti_sysbios_knl_Task_sleep__E                                         
00008ac9  ti_sysbios_knl_Task_startCore__E                                     
0000fd89  ti_sysbios_knl_Task_startup__E                                       
0000f1c5  ti_sysbios_knl_Task_swapReturn                                       
00009d41  ti_sysbios_knl_Task_unblockI__E                                      
00016284  ti_sysbios_utils_Load_LS_cpuLoad__C                                  
00016288  ti_sysbios_utils_Load_LS_hwiLoad__C                                  
20006380  ti_sysbios_utils_Load_Module_State_0_runningTask__A                  
2000637c  ti_sysbios_utils_Load_Module_State_0_taskStartTime__A                
0001628c  ti_sysbios_utils_Load_Module__diagsEnabled__C                        
00016290  ti_sysbios_utils_Load_Module__diagsIncluded__C                       
00016294  ti_sysbios_utils_Load_Module__diagsMask__C                           
00016376  ti_sysbios_utils_Load_Module__id__C                                  
00016378  ti_sysbios_utils_Load_Module__loggerDefined__C                       
00016298  ti_sysbios_utils_Load_Module__loggerFxn1__C                          
0001629c  ti_sysbios_utils_Load_Module__loggerFxn2__C                          
000162a0  ti_sysbios_utils_Load_Module__loggerObj__C                           
200065ac  ti_sysbios_utils_Load_Module__state__V                               
0001637a  ti_sysbios_utils_Load_hwiEnabled__C                                  
00008db1  ti_sysbios_utils_Load_idleFxn__E                                     
0000b8e9  ti_sysbios_utils_Load_logCPULoad__I                                  
0000a6d1  ti_sysbios_utils_Load_logLoads__I                                    
000162a4  ti_sysbios_utils_Load_postUpdate__C                                  
0000bf41  ti_sysbios_utils_Load_updateCurrentThreadTime__E                     
0001637c  ti_sysbios_utils_Load_updateInIdle__C                                
00008f11  ti_sysbios_utils_Load_updateLoads__E                                 
0000ae21  ti_sysbios_utils_Load_updateThreadContexts__E                        
00008f11  ti_sysbios_utils_Load_update__E                                      
000162a8  ti_sysbios_utils_Load_windowInMs__C                                  
0000f249  ti_uia_loggers_LoggerStopMode_Handle__label__S                       
20006100  ti_uia_loggers_LoggerStopMode_Instance_State_0_hdr__A                
20005b00  ti_uia_loggers_LoggerStopMode_Instance_State_0_packetArray__A        
20006180  ti_uia_loggers_LoggerStopMode_Instance_State_1_hdr__A                
20005600  ti_uia_loggers_LoggerStopMode_Instance_State_1_packetArray__A        
20006200  ti_uia_loggers_LoggerStopMode_Instance_State_2_hdr__A                
20004580  ti_uia_loggers_LoggerStopMode_Instance_State_2_packetArray__A        
0000ef25  ti_uia_loggers_LoggerStopMode_Instance_init__E                       
000157d4  ti_uia_loggers_LoggerStopMode_Module__FXNS__C                        
000162ac  ti_uia_loggers_LoggerStopMode_Module__diagsEnabled__C                
000162b0  ti_uia_loggers_LoggerStopMode_Module__diagsIncluded__C               
000162b4  ti_uia_loggers_LoggerStopMode_Module__diagsMask__C                   
0001637e  ti_uia_loggers_LoggerStopMode_Module__id__C                          
20006384  ti_uia_loggers_LoggerStopMode_Module__root__V                        
2000638c  ti_uia_loggers_LoggerStopMode_Module__state__V                       
0000c885  ti_uia_loggers_LoggerStopMode_Module_startup__E                      
00015e10  ti_uia_loggers_LoggerStopMode_Object__DESC__C                        
00015b3c  ti_uia_loggers_LoggerStopMode_Object__PARAMS__C                      
000162b8  ti_uia_loggers_LoggerStopMode_Object__count__C                       
0000e07d  ti_uia_loggers_LoggerStopMode_Object__create__S                      
0000ec61  ti_uia_loggers_LoggerStopMode_Object__delete__S                      
0000f7c9  ti_uia_loggers_LoggerStopMode_Object__get__S                         
20006510  ti_uia_loggers_LoggerStopMode_Object__table__V                       
0000f35f  ti_uia_loggers_LoggerStopMode_disable__E                             
0000f375  ti_uia_loggers_LoggerStopMode_enable__E                              
0000b319  ti_uia_loggers_LoggerStopMode_flush__E                               
0000c7e5  ti_uia_loggers_LoggerStopMode_getContents__E                         
0000c835  ti_uia_loggers_LoggerStopMode_getFilterLevel__E                      
0000ceed  ti_uia_loggers_LoggerStopMode_getInstanceId__E                       
0000d24d  ti_uia_loggers_LoggerStopMode_getMaxLength__E                        
0000d3fd  ti_uia_loggers_LoggerStopMode_getPriority__E                         
0000d43d  ti_uia_loggers_LoggerStopMode_getTransferType__E                     
0000cf35  ti_uia_loggers_LoggerStopMode_initBuffer__I                          
00009dd1  ti_uia_loggers_LoggerStopMode_initQueueDescriptor__E                 
0000f7d9  ti_uia_loggers_LoggerStopMode_isEmpty__E                             
00016380  ti_uia_loggers_LoggerStopMode_isTimestampEnabled__C                  
0000dbd5  ti_uia_loggers_LoggerStopMode_reset__E                               
0000a007  ti_uia_loggers_LoggerStopMode_setFilterLevel__E                      
0000a557  ti_uia_loggers_LoggerStopMode_setPriority__E                         
000080a9  ti_uia_loggers_LoggerStopMode_write0__E                              
00007b7d  ti_uia_loggers_LoggerStopMode_write1__E                              
000079b1  ti_uia_loggers_LoggerStopMode_write2__E                              
00007335  ti_uia_loggers_LoggerStopMode_write4__E                              
0000686d  ti_uia_loggers_LoggerStopMode_write8__E                              
0000604d  ti_uia_loggers_LoggerStopMode_writeMemoryRange__E                    
000162bc  ti_uia_runtime_ILoggerSnapshot_Interface__BASE__C                    
000162c0  ti_uia_runtime_IUIATransfer_Interface__BASE__C                       
20006394  ti_uia_runtime_QueueDescriptor_Module__state__V                      
0000ab05  ti_uia_runtime_QueueDescriptor_addToList__E                          
20006a10  ti_uia_runtime_QueueDescriptor_gPtrToFirstDescriptor                 
20006a14  ti_uia_runtime_QueueDescriptor_gUpdateCount                          
0000e3d9  uDMAChannelAssign                                                    
0000cc81  uDMAChannelAttributeDisable                                          
0000e8e5  uDMAChannelControlSet                                                
0000f261  uDMAChannelDisable                                                   
0000f279  uDMAChannelEnable                                                    
0000f291  uDMAChannelIsEnabled                                                 
0000e649  uDMAChannelModeGet                                                   
0000a455  uDMAChannelTransferSet                                               
0000faa9  uDMAControlBaseSet                                                   
0000f7e9  uDMAEnable                                                           
0000fab5  uDMAErrorStatusClear                                                 
0000fac1  uDMAErrorStatusGet                                                   
0000facd  uDMAIntStatus                                                        
00015f54  uartTivaHWAttrs                                                      
20005ce4  uartTivaObjects                                                      
20005ad0  uartTivaRingBuffer                                                   
00016094  usbmschfatfstivaHWAttrs                                              
20004980  usbmschfatfstivaObjects                                              
00016034  watchdogTivaHWAttrs                                                  
20006130  watchdogTivaObjects                                                  
000162c4  xdc_runtime_Assert_E_assertFailed__C                                 
0000bf95  xdc_runtime_Assert_raise__I                                          
000162c8  xdc_runtime_Core_A_initializedParams__C                              
000162cc  xdc_runtime_Core_Module__diagsEnabled__C                             
000162d0  xdc_runtime_Core_Module__diagsIncluded__C                            
000162d4  xdc_runtime_Core_Module__diagsMask__C                                
00016382  xdc_runtime_Core_Module__id__C                                       
0000dc09  xdc_runtime_Core_assignLabel__I                                      
0000cd0f  xdc_runtime_Core_assignParams__I                                     
00008325  xdc_runtime_Core_constructObject__I                                  
00006a79  xdc_runtime_Core_createObject__I                                     
0000b37f  xdc_runtime_Core_deleteObject__I                                     
2000626c  xdc_runtime_Diags_dictElems                                          
000162d8  xdc_runtime_Error_E_memory__C                                        
000162dc  xdc_runtime_Error_Module__diagsEnabled__C                            
000162e0  xdc_runtime_Error_Module__diagsIncluded__C                           
000162e4  xdc_runtime_Error_Module__diagsMask__C                               
00016384  xdc_runtime_Error_Module__loggerDefined__C                           
000162e8  xdc_runtime_Error_Module__loggerFxn8__C                              
000162ec  xdc_runtime_Error_Module__loggerObj__C                               
200063a0  xdc_runtime_Error_Module__state__V                                   
0000f2a9  xdc_runtime_Error_check__E                                           
0000d47d  xdc_runtime_Error_getSite__E                                         
0000fad9  xdc_runtime_Error_init__E                                            
00016386  xdc_runtime_Error_maxDepth__C                                        
00006755  xdc_runtime_Error_policyDefault__E                                   
000162f0  xdc_runtime_Error_policyFxn__C                                       
0001520d  xdc_runtime_Error_policy__C                                          
0000aef9  xdc_runtime_Error_print__E                                           
000162f4  xdc_runtime_Error_raiseHook__C                                       
0000ef41  xdc_runtime_Error_raiseX__E                                          
0000cf79  xdc_runtime_Error_setX__E                                            
0000fae5  xdc_runtime_Gate_enterSystem__E                                      
0000f7f9  xdc_runtime_Gate_leaveSystem__E                                      
000162f8  xdc_runtime_IFilterLogger_Interface__BASE__C                         
000162fc  xdc_runtime_IGateProvider_Interface__BASE__C                         
00016300  xdc_runtime_IHeap_Interface__BASE__C                                 
00016304  xdc_runtime_ILogger_Interface__BASE__C                               
00016308  xdc_runtime_IModule_Interface__BASE__C                               
0001630c  xdc_runtime_Log_L_error__C                                           
0000f1d1  xdc_runtime_Main_Module_GateProxy_Handle__label__S                   
0000eba1  xdc_runtime_Main_Module_GateProxy_Object__delete__S                  
0000fd79  xdc_runtime_Main_Module_GateProxy_query__E                           
200063a2  xdc_runtime_Main_Module__root__V                                     
0000f219  xdc_runtime_Memory_HeapProxy_Handle__label__S                        
0000ebe1  xdc_runtime_Memory_HeapProxy_Object__delete__S                       
0000fc21  xdc_runtime_Memory_HeapProxy_alloc__E                                
0000fc2b  xdc_runtime_Memory_HeapProxy_free__E                                 
00016388  xdc_runtime_Memory_Module__id__C                                     
200063a4  xdc_runtime_Memory_Module__state__V                                  
0000af65  xdc_runtime_Memory_alloc__E                                          
0000faf1  xdc_runtime_Memory_calloc__E                                         
00016310  xdc_runtime_Memory_defaultHeapInstance__C                            
0000f809  xdc_runtime_Memory_free__E                                           
0000fafd  xdc_runtime_Memory_getMaxDefaultTypeAlign__E                         
0000ef5d  xdc_runtime_Memory_valloc__E                                         
200063a8  xdc_runtime_Registry_Module__state__V                                
0000ec81  xdc_runtime_Registry_findById__E                                     
200063b0  xdc_runtime_Startup_Module__state__V                                 
00000001  xdc_runtime_Startup__EXECFXN__C                                      
00000001  xdc_runtime_Startup__RESETFXN__C                                     
00016314  xdc_runtime_Startup_execImpl__C                                      
0000c3b1  xdc_runtime_Startup_exec__E                                          
0000f6c3  xdc_runtime_Startup_exec__I                                          
00015f98  xdc_runtime_Startup_firstFxns__A                                     
0001609c  xdc_runtime_Startup_firstFxns__C                                     
00016318  xdc_runtime_Startup_lastFxns__A                                      
000160a4  xdc_runtime_Startup_lastFxns__C                                      
0001631c  xdc_runtime_Startup_maxPasses__C                                     
0000b767  xdc_runtime_Startup_reset__I                                         
00015fac  xdc_runtime_Startup_sfxnRts__A                                       
00016320  xdc_runtime_Startup_sfxnRts__C                                       
00015b64  xdc_runtime_Startup_sfxnTab__A                                       
00016324  xdc_runtime_Startup_sfxnTab__C                                       
00006e69  xdc_runtime_Startup_startMods__I                                     
20005ffc  xdc_runtime_SysMin_Module_State_0_outbuf__A                          
200063b8  xdc_runtime_SysMin_Module__state__V                                  
0000eca1  xdc_runtime_SysMin_Module_startup__E                                 
0000e0ad  xdc_runtime_SysMin_abort__E                                          
00016328  xdc_runtime_SysMin_bufSize__C                                        
0000ef79  xdc_runtime_SysMin_exit__E                                           
0001638a  xdc_runtime_SysMin_flushAtExit__C                                    
0000cfbd  xdc_runtime_SysMin_flush__E                                          
0001632c  xdc_runtime_SysMin_outputFunc__C                                     
0000e9fd  xdc_runtime_SysMin_output__I                                         
0000d881  xdc_runtime_SysMin_putch__E                                          
0000f819  xdc_runtime_SysMin_ready__E                                          
0000f1d1  xdc_runtime_System_Module_GateProxy_Handle__label__S                 
0000eba1  xdc_runtime_System_Module_GateProxy_Object__delete__S                
0000db35  xdc_runtime_System_Module_GateProxy_enter__E                         
0000e325  xdc_runtime_System_Module_GateProxy_leave__E                         
0000fd79  xdc_runtime_System_Module_GateProxy_query__E                         
200063c4  xdc_runtime_System_Module_State_0_atexitHandlers__A                  
00016330  xdc_runtime_System_Module__gateObj__C                                
200063cc  xdc_runtime_System_Module__state__V                                  
0000fd3b  xdc_runtime_System_Module_startup__E                                 
0000e0ad  xdc_runtime_System_SupportProxy_abort__E                             
0000ef79  xdc_runtime_System_SupportProxy_exit__E                              
0000cfbd  xdc_runtime_System_SupportProxy_flush__E                             
0000d881  xdc_runtime_System_SupportProxy_putch__E                             
0000f819  xdc_runtime_System_SupportProxy_ready__E                             
00016334  xdc_runtime_System_abortFxn__C                                       
0000ce25  xdc_runtime_System_abortStd__E                                       
0000ef95  xdc_runtime_System_abort__E                                          
0000f01b  xdc_runtime_System_aprintf__E                                        
0000e61d  xdc_runtime_System_aprintf_va__F                                     
0000d8b9  xdc_runtime_System_atexit__E                                         
0000e72f  xdc_runtime_System_avprintf__E                                       
000020e1  xdc_runtime_System_doPrint__I                                        
00016338  xdc_runtime_System_exitFxn__C                                        
0000ce2d  xdc_runtime_System_exitStd__E                                        
0000f2c1  xdc_runtime_System_exit__E                                           
0001633c  xdc_runtime_System_extendFxn__C                                      
0000b5dd  xdc_runtime_System_formatNum__I                                      
00016340  xdc_runtime_System_maxAtexitHandlers__C                              
00006f61  xdc_runtime_System_printfExtend__I                                   
0000f035  xdc_runtime_System_printf__E                                         
0000e875  xdc_runtime_System_printf_va__F                                      
0000e0dd  xdc_runtime_System_processAtExit__E                                  
0000e4b1  xdc_runtime_System_putchar__I                                        
0000e909  xdc_runtime_System_vprintf__E                                        
0000f829  xdc_runtime_System_vsnprintf__E                                      
200063d4  xdc_runtime_Text_Module__state__V                                    
0001638c  xdc_runtime_Text_charCnt__C                                          
0000fd9c  xdc_runtime_Text_charTab__A                                          
00016344  xdc_runtime_Text_charTab__C                                          
0000e431  xdc_runtime_Text_cordText__E                                         
0001638e  xdc_runtime_Text_isLoaded__C                                         
00016348  xdc_runtime_Text_nameEmpty__C                                        
0001634c  xdc_runtime_Text_nameStatic__C                                       
00016350  xdc_runtime_Text_nameUnknown__C                                      
00016044  xdc_runtime_Text_nodeTab__A                                          
00016354  xdc_runtime_Text_nodeTab__C                                          
0000dc3d  xdc_runtime_Text_printVisFxn__I                                      
0000bbd1  xdc_runtime_Text_putLab__E                                           
000094e5  xdc_runtime_Text_putMod__E                                           
000096bd  xdc_runtime_Text_putSite__E                                          
00016390  xdc_runtime_Text_registryModsLastId__C                               
0000f2d9  xdc_runtime_Text_ropeText__E                                         
00016392  xdc_runtime_Text_unnamedModsLastId__C                                
0000c401  xdc_runtime_Text_visitRope2__I                                       
00016358  xdc_runtime_Text_visitRopeFxn__C                                     
0000fc35  xdc_runtime_Text_visitRope__I                                        
0000d001  xdc_runtime_Text_xprintf__I                                          
00007fd1  xdc_runtime_Timestamp_SupportProxy_get32__E                          
00004929  xdc_runtime_Timestamp_SupportProxy_get64__E                          
0000f749  xdc_runtime_Timestamp_SupportProxy_getFreq__E                        


GLOBAL SYMBOLS: SORTED BY Symbol Address 

address   name                                                                 
-------   ----                                                                 
00000000  __ASM__                                                              
00000000  ti_sysbios_family_arm_m3_Hwi_resetVectors                            
00000001  xdc_runtime_Startup__EXECFXN__C                                      
00000001  xdc_runtime_Startup__RESETFXN__C                                     
0000005e  __ISA__                                                              
00000071  __PLAT__                                                             
00000092  __TARG__                                                             
000000b8  __TRDR__                                                             
00000300  __STACK_SIZE                                                         
0000042d  Kentec320x240x16_SSD2119Init                                         
0000073b  DK_TM4C129X_initDMA                                                  
0000078b  DK_TM4C129X_initGeneral                                              
00000801  DK_TM4C129X_initEMAC                                                 
000008c5  DK_TM4C129X_initGPIO                                                 
000008cd  DK_TM4C129X_initI2C                                                  
00000943  DK_TM4C129X_initPWM                                                  
0000096d  DK_TM4C129X_initSDSPI                                                
000009c1  DK_TM4C129X_initSPI                                                  
00000a99  DK_TM4C129X_initUART                                                 
00000b21  DK_TM4C129X_initUSB                                                  
00000b75  DK_TM4C129X_initUSBMSCHFatFs                                         
00000b91  DK_TM4C129X_initWatchdog                                             
00000bd5  DK_TM4C129X_initWiFi                                                 
00000d19  Festo_Driver_Init                                                    
00000d89  Festo_Control_Platform                                               
00000dd9  Festo_Control_Ejector                                                
00000e17  Festo_Control_Driver                                                 
00000e49  Festo_Control_Measure                                                
00000e87  Festo_Sense_Piece_Placed                                             
00000e9b  Festo_Sense_Piece_Colour                                             
00000eaf  Festo_Sense_Piece_Material                                           
00000ec3  Festo_Sense_Riser_Down                                               
00000ed7  Festo_Sense_Riser_Up                                                 
00000eeb  Festo_Sense_Ejector_Ready                                            
00000eff  Festo_Sense_Measure_Down                                             
00000f13  echoFxn                                                              
00000fc1  _task_LCD                                                            
00001001  _task_Festo                                                          
00001077  _callback_Button_Up                                                  
0000108b  _callback_Button_Down                                                
0000109f  _callback_Button_Select                                              
000010b3  _callback_Festo_Riser_Down                                           
000010c7  _callback_Festo_Riser_Up                                             
000010db  main                                                                 
000011d9  ti_sysbios_family_arm_m3_Hwi_excDumpRegs__I                          
0000160d  USBHostIntHandlerInternal                                            
00001d71  ti_sysbios_knl_Event_pend__E                                         
000020e1  xdc_runtime_System_doPrint__I                                        
0000242d  I2CMasterControl                                                     
00002431  ti_sysbios_knl_Semaphore_pend__E                                     
00002a35  HOSTwrite                                                            
00002a81  HOSTunlink                                                           
00002ab9  HOSTtime                                                             
00002af3  HOSTrename                                                           
00002b51  HOSTread                                                             
00002b9d  HOSTopen                                                             
00002bef  HOSTlseek                                                            
00002c4b  HOSTgetenv                                                           
00002c89  HOSTclose                                                            
00002cc1  HOSTclock                                                            
00002d09  FrameDraw                                                            
00002f81  GrFontGlyphRender                                                    
000031d7  SPITivaDMA_serviceISR                                                
000031d9  ti_sysbios_heaps_HeapMem_free__E                                     
0000342d  I2CMasterDataGet                                                     
00003431  ti_sysbios_heaps_HeapMem_alloc__E                                    
00003671  ti_sysbios_knl_Task_Instance_finalize__E                             
0000389d  UARTTiva_open                                                        
00003ab1  ti_catalog_arm_cortexm4_tiva_ce_Boot_sysCtlClockFreqSetI__I          
00003cb5  SDSPITiva_diskInitialize                                             
00003ea9  ti_sysbios_knl_Task_sleep__E                                         
0000409d  I2CMasterDataPut                                                     
000040a1  ti_sysbios_family_arm_m3_Hwi_excHandlerMax__I                        
00004291  ti_sysbios_knl_Task_Instance_init__E                                 
00004459  USBMSCHFatFsTiva_open                                                
000045f9  USBHCDPipeAllocSize                                                  
00004925  LCDDMAConfigSet                                                      
00004929  ti_sysbios_family_arm_lm4_TimestampProvider_get64__E                 
00004929  xdc_runtime_Timestamp_SupportProxy_get64__E                          
00004aa5  USBHHubMain                                                          
00004c1d  LCDIDDConfigSet                                                      
00004c21  ti_sysbios_family_arm_m3_Hwi_excBusFault__I                          
00004d95  PWMTiva_open                                                         
00004f05  USBLibDMAInit                                                        
000051e1  ti_sysbios_family_arm_lm4_Timer_start__E                             
00005349  ti_sysbios_family_arm_m3_Hwi_excUsageFault__I                        
000055fd  USBDeviceIntHandlerInternal                                          
0000574d  USBHCDPipeRead                                                       
0000589d  SSIIntClear                                                          
000058a1  ti_sysbios_knl_Event_post__E                                         
000059f1  ti_sysbios_knl_Semaphore_post__E                                     
00005b41  GPIO_setConfig                                                       
00005c89  ti_sysbios_family_arm_m3_Hwi_excMemFault__I                          
00005dd1  USBDeviceConfig                                                      
00005f11  ti_sysbios_heaps_HeapMem_Instance_init__E                            
0000604d  ti_uia_loggers_LoggerStopMode_writeMemoryRange__E                    
00006185  UARTIntClear                                                         
00006189  ti_sysbios_knl_Clock_workFunc__E                                     
000062bd  GPIOPadConfigSet                                                     
000063ed  USBHCDPipeWrite                                                      
00006515  USBDevAddrSet                                                        
00006519  ti_sysbios_family_arm_m3_Hwi_dispatchC__I                            
00006635  USBMSCHFatFsTiva_control                                             
00006639  ti_sysbios_knl_Clock_Instance_init__E                                
00006755  xdc_runtime_Error_policyDefault__E                                   
0000686d  ti_uia_loggers_LoggerStopMode_write8__E                              
00006a79  xdc_runtime_Core_createObject__I                                     
00006b79  PWMTiva_setDuty                                                      
00006c75  USBHMSCDriveReady                                                    
00006d71  SDSPITiva_open                                                       
00006e69  xdc_runtime_Startup_startMods__I                                     
00006f61  xdc_runtime_System_printfExtend__I                                   
00007059  SDSPITiva_diskIOctrl                                                 
0000714d  USBHCDInit                                                           
00007241  ti_sysbios_family_arm_m3_Hwi_dispatch__I                             
00007335  ti_uia_loggers_LoggerStopMode_write4__E                              
00007429  USBHCDControlTransfer                                                
00007519  USBHCDPipeFree                                                       
00007609  SPITivaDMA_open                                                      
000077df  WatchdogTiva_close                                                   
000077e1  I2CTiva_open                                                         
000078c9  SDSPITiva_diskWrite                                                  
000079b1  ti_uia_loggers_LoggerStopMode_write2__E                              
00007b7d  ti_uia_loggers_LoggerStopMode_write1__E                              
00007c61  USBHCDMain                                                           
00007e1d  USBDeviceEnumHandler                                                 
00007ef5  USBHCDPipeConfig                                                     
00007fd1  ti_sysbios_family_arm_lm4_TimestampProvider_get32__E                 
00007fd1  xdc_runtime_Timestamp_SupportProxy_get32__E                          
000080a9  ti_uia_loggers_LoggerStopMode_write0__E                              
00008259  ti_sysbios_knl_Task_schedule__I                                      
00008325  xdc_runtime_Core_constructObject__I                                  
000084b7  GrDefaultStringRenderer                                              
0000857b  GPIOIntClear                                                         
00008581  ti_sysbios_family_arm_m3_Hwi_Module_startup__E                       
00008645  USBHostEndpointConfig                                                
00008709  SDSPITiva_diskRead                                                   
00008889  USB0OTGModeIntHandler                                                
00008945  WatchdogReloadSet                                                    
00008949  ti_sysbios_family_arm_m3_Hwi_excDebugMon__I                          
00008a05  ti_sysbios_BIOS_RtsGateProxy_enter__E                                
00008a09  ti_sysbios_family_arm_m3_Hwi_excHardFault__I                         
00008ac5  ti_sysbios_BIOS_RtsGateProxy_leave__E                                
00008ac9  ti_sysbios_knl_Task_startCore__E                                     
00008c3f  ti_sysbios_BIOS_nullFunc__I                                          
00008c41  ti_sysbios_gates_GateMutex_enter__E                                  
00008cf5  ti_sysbios_family_arm_lm4_Timer_masterEnable__I                      
00008cf9  ti_sysbios_knl_Task_checkStacks__E                                   
00008dad  ti_sysbios_family_arm_m3_Hwi_destruct                                
00008db1  ti_sysbios_utils_Load_idleFxn__E                                     
00008e61  ti_sysbios_family_arm_lm4_Timer_enableTiva__I                        
00008f0d  ti_sysbios_family_arm_m3_TaskSupport_Module__startupDone__S          
00008f0d  ti_sysbios_knl_Task_SupportProxy_Module__startupDone__S              
00008f11  ti_sysbios_utils_Load_updateLoads__E                                 
00008f11  ti_sysbios_utils_Load_update__E                                      
00008fbd  ti_sysbios_gates_GateMutex_destruct                                  
00008fc1  ti_sysbios_family_arm_lm4_Timer_enableTimers__I                      
00009069  ti_sysbios_knl_Task_blockI__E                                        
00009111  ti_sysbios_knl_Task_postInit__I                                      
0000925d  WatchdogTiva_open                                                    
00009301  ti_sysbios_knl_Clock_Instance_finalize__E                            
000093a5  __TI_auto_init                                                       
000094e5  xdc_runtime_Text_putMod__E                                           
00009621  __aeabi_memcpy                                                       
00009621  __aeabi_memcpy4                                                      
00009621  __aeabi_memcpy8                                                      
00009621  memcpy                                                               
000096bd  xdc_runtime_Text_putSite__E                                          
000097f1  GPIO_init                                                            
00009889  UARTTiva_readPolling                                                 
000099b9  ti_catalog_arm_cortexm4_tiva_ce_Boot_sysCtlClockFreqSet__E           
00009ae5  ti_sysbios_heaps_HeapMem_Module_GateProxy_enter__E                   
00009ae9  ti_sysbios_family_arm_m3_Hwi_Instance_init__E                        
00009b7d  ti_sysbios_heaps_HeapMem_Module_GateProxy_leave__E                   
00009b81  ti_sysbios_family_arm_m3_Hwi_initNVIC__E                             
00009c15  ti_sysbios_knl_Clock_TimerProxy_getMaxTicks__E                       
00009c19  ti_sysbios_knl_Task_exit__E                                          
00009d3d  ti_sysbios_knl_Clock_TimerProxy_getPeriod__E                         
00009d41  ti_sysbios_knl_Task_unblockI__E                                      
00009dd1  ti_uia_loggers_LoggerStopMode_initQueueDescriptor__E                 
00009eef  UARTTiva_control                                                     
00009f7b  UARTTiva_write                                                       
0000a007  ti_uia_loggers_LoggerStopMode_setFilterLevel__E                      
0000a095  USBDeviceConfigAlternate                                             
0000a1ad  ti_sysbios_family_arm_m3_TaskSupport_buildTaskStack                  
0000a239  PWMTiva_control                                                      
0000a349  ti_sysbios_knl_Mailbox_Module_startup__E                             
0000a455  uDMAChannelTransferSet                                               
0000a4d9  I2CTiva_transfer                                                     
0000a557  ti_uia_loggers_LoggerStopMode_setPriority__E                         
0000a6cd  ti_sysbios_knl_Clock_destruct                                        
0000a6d1  ti_sysbios_utils_Load_logLoads__I                                    
0000a74d  USBDevEndpointConfigSet                                              
0000a841  __aeabi_memclr                                                       
0000a841  __aeabi_memclr4                                                      
0000a841  __aeabi_memclr8                                                      
0000a843  __aeabi_memset                                                       
0000a843  __aeabi_memset4                                                      
0000a843  __aeabi_memset8                                                      
0000a849  memset                                                               
0000aa19  ti_sysbios_family_arm_m3_Hwi_postInit__I                             
0000aa8d  ti_sysbios_knl_Queue_destruct                                        
0000aa91  ti_sysbios_knl_Clock_start__E                                        
0000ab05  ti_uia_runtime_QueueDescriptor_addToList__E                          
0000abeb  SPITivaDMA_transferCancel                                            
0000accd  ti_sysbios_knl_Semaphore_delete                                      
0000acd1  ti_sysbios_knl_Semaphore_Instance_init__E                            
0000ae1d  ti_sysbios_knl_Semaphore_destruct                                    
0000ae21  ti_sysbios_utils_Load_updateThreadContexts__E                        
0000aef9  xdc_runtime_Error_print__E                                           
0000af65  xdc_runtime_Memory_alloc__E                                          
0000afd1  GrStringWidthGet                                                     
0000b03b  PWMTiva_close                                                        
0000b111  GrContextInit                                                        
0000b179  IntDisable                                                           
0000b1e1  IntEnable                                                            
0000b2b1  __TI_writemsg                                                        
0000b2df  C$$IO$$                                                              
0000b2e3  __TI_readmsg                                                         
0000b319  ti_uia_loggers_LoggerStopMode_flush__E                               
0000b37f  xdc_runtime_Core_deleteObject__I                                     
0000b3e5  GPIO_hwiIntFxn                                                       
0000b449  IntIsEnabled                                                         
0000b4ad  ti_sysbios_knl_Task_destruct                                         
0000b4b1  ti_sysbios_family_arm_lm4_Timer_Module_startup__E                    
0000b515  ti_sysbios_family_arm_m3_Hwi_create                                  
0000b5dd  xdc_runtime_System_formatNum__I                                      
0000b641  GrContextClipRegionSet                                               
0000b705  SPITivaDMA_transfer                                                  
0000b767  xdc_runtime_Startup_reset__I                                         
0000b7c9  USBHostCheckPipes                                                    
0000b829  ti_sysbios_family_arm_lm4_Timer_isrStub__E                           
0000b889  ti_sysbios_knl_Clock_logTick__E                                      
0000b8e9  ti_sysbios_utils_Load_logCPULoad__I                                  
0000b949  USBDevEndpointStatusClear                                            
0000b9a9  ConfigDescAlloc                                                      
0000ba61  USBHSCSIRead10                                                       
0000babd  USBHSCSIWrite10                                                      
0000bb19  ti_sysbios_knl_Task_Module_startup__E                                
0000bbd1  xdc_runtime_Text_putLab__E                                           
0000bc89  _c_int00                                                             
0000bd39  USBHCDHubDeviceConnected                                             
0000bd91  ti_sysbios_family_arm_m3_Hwi_construct                               
0000bde9  ti_sysbios_family_arm_m3_Hwi_initStacks__E                           
0000be41  GPIOIntTypeSet                                                       
0000beed  ti_sysbios_knl_Task_construct                                        
0000bf41  ti_sysbios_utils_Load_updateCurrentThreadTime__E                     
0000bf95  xdc_runtime_Assert_raise__I                                          
0000bfe9  SPITivaDMA_hwiFxn                                                    
0000c03b  ULPIConfigSet                                                        
0000c08d  USBMSCHFatFsTiva_close                                               
0000c131  GPIO_setCallback                                                     
0000c181  GPIO_toggle                                                          
0000c1d1  GPIO_write                                                           
0000c221  SysCtlPeripheralReset                                                
0000c271  USBDCDConfigDescGet                                                  
0000c2c1  USBDeviceResumeTickHandler                                           
0000c311  USBMSCHFatFsTiva_diskWrite                                           
0000c3b1  xdc_runtime_Startup_exec__E                                          
0000c401  xdc_runtime_Text_visitRope2__I                                       
0000c49f  USBDevEndpointStallClear                                             
0000c5d1  UARTTiva_close                                                       
0000c61d  USBEndpointDMAConfigSet                                              
0000c669  USBHCDPowerConfigSet                                                 
0000c6b5  USBHCDSetAddress                                                     
0000c701  USBMSCHFatFsTiva_diskRead                                            
0000c799  copy_in                                                              
0000c7e5  ti_uia_loggers_LoggerStopMode_getContents__E                         
0000c7e9  ti_sysbios_heaps_HeapMem_getStats__E                                 
0000c835  ti_uia_loggers_LoggerStopMode_getFilterLevel__E                      
0000c839  ti_sysbios_knl_Task_allBlockedFunction__I                            
0000c885  ti_uia_loggers_LoggerStopMode_Module_startup__E                      
0000c9b1  GPIOPinConfigure                                                     
0000c9f9  I2CMasterInitExpClk                                                  
0000ca41  UARTTiva_writeCancel                                                 
0000cad1  USBDeviceEnumResetHandler                                            
0000cb19  USBFIFOFlush                                                         
0000cb61  USBHHubInit                                                          
0000cba9  ti_sysbios_family_arm_m3_Hwi_disableInterrupt__E                     
0000cba9  ti_sysbios_hal_Hwi_HwiProxy_disableInterrupt__E                      
0000cbf1  ti_sysbios_family_arm_m3_Hwi_enableInterrupt__E                      
0000cbf1  ti_sysbios_hal_Hwi_HwiProxy_enableInterrupt__E                       
0000cc39  ti_sysbios_family_arm_m3_Hwi_excReserved__I                          
0000cc81  uDMAChannelAttributeDisable                                          
0000ccc9  RingBuf_put                                                          
0000cd0f  xdc_runtime_Core_assignParams__I                                     
0000cd99  USBEndpointDataGet                                                   
0000cddd  f_mount                                                              
0000ce21  C$$EXIT                                                              
0000ce25  abort                                                                
0000ce25  xdc_runtime_System_abortStd__E                                       
0000ce2d  exit                                                                 
0000ce2d  xdc_runtime_System_exitStd__E                                        
0000cea9  ti_sysbios_family_arm_lm4_Timer_stop__E                              
0000ceed  ti_uia_loggers_LoggerStopMode_getInstanceId__E                       
0000cef1  ti_sysbios_family_arm_m3_Hwi_getStackInfo__E                         
0000cef1  ti_sysbios_hal_Hwi_HwiProxy_getStackInfo__E                          
0000cf35  ti_uia_loggers_LoggerStopMode_initBuffer__I                          
0000cf79  xdc_runtime_Error_setX__E                                            
0000cfbd  xdc_runtime_SysMin_flush__E                                          
0000cfbd  xdc_runtime_System_SupportProxy_flush__E                             
0000d001  xdc_runtime_Text_xprintf__I                                          
0000d045  SSIConfigSetExpClk                                                   
0000d087  UARTConfigSetExpClk                                                  
0000d0c9  UARTTiva_writePolling                                                
0000d10b  __aeabi_uidiv                                                        
0000d10b  __aeabi_uidivmod                                                     
0000d14d  RingBuf_get                                                          
0000d18d  UARTTiva_read                                                        
0000d20d  USBMSCHFatFsTiva_diskInitialize                                      
0000d24d  ti_uia_loggers_LoggerStopMode_getMaxLength__E                        
0000d251  ti_sysbios_family_arm_lm4_Timer_startup__E                           
0000d251  ti_sysbios_knl_Clock_TimerProxy_startup__E                           
0000d291  USBHSCSIInquiry                                                      
0000d2cf  USBHSCSIReadCapacity                                                 
0000d349  SPITivaDMA_close                                                     
0000d385  USBHSCSIRequestSense                                                 
0000d3fd  ti_uia_loggers_LoggerStopMode_getPriority__E                         
0000d401  ti_sysbios_family_arm_m3_Hwi_excSvCall__I                            
0000d43d  ti_uia_loggers_LoggerStopMode_getTransferType__E                     
0000d441  ti_sysbios_family_arm_m3_TaskSupport_start__E                        
0000d441  ti_sysbios_knl_Task_SupportProxy_start__E                            
0000d47d  xdc_runtime_Error_getSite__E                                         
0000d481  ti_sysbios_heaps_HeapMem_init__I                                     
0000d531  LCDIDDTimingSet                                                      
0000d56b  USBDCDConfigGetInterfaceEndpoint                                     
0000d5a5  USBFIFOConfigSet                                                     
0000d5e1  I2C_init                                                             
0000d619  PWM_init                                                             
0000d651  SDSPI_init                                                           
0000d689  SPI_init                                                             
0000d6c1  UART_init                                                            
0000d6f9  USBHCDReset                                                          
0000d731  USBHSCSITestUnitReady                                                
0000d769  USBIntStatusControl                                                  
0000d7a1  USBMSCHFatFs_init                                                    
0000d7d9  Watchdog_init                                                        
0000d811  ti_sysbios_family_arm_m3_Hwi_excNoIsr__I                             
0000d849  ti_sysbios_knl_Task_processVitalTaskFlag__I                          
0000d881  xdc_runtime_SysMin_putch__E                                          
0000d881  xdc_runtime_System_SupportProxy_putch__E                             
0000d8b9  xdc_runtime_System_atexit__E                                         
0000d95d  I2CTiva_close                                                        
0000d993  UARTTiva_readCancel                                                  
0000d9c9  EMAC_init                                                            
0000d9fd  InternalUSBStartOfFrameTick                                          
0000da31  SysCtlPeripheralEnable                                               
0000da99  USBHCDSetConfig                                                      
0000db35  xdc_runtime_System_Module_GateProxy_enter__E                         
0000db39  ti_sysbios_family_arm_m3_Hwi_excNmi__I                               
0000db6d  ti_sysbios_knl_Clock_construct                                       
0000dba1  ti_sysbios_knl_Semaphore_create                                      
0000dbd5  ti_uia_loggers_LoggerStopMode_reset__E                               
0000dc09  xdc_runtime_Core_assignLabel__I                                      
0000dc3d  xdc_runtime_Text_printVisFxn__I                                      
0000dca3  USBDevEndpointStall                                                  
0000dcd5  USBMSCHFatFsTiva_waitForConnect                                      
0000dd39  ti_sysbios_hal_Hwi_initStack                                         
0000dd6b  GPIOPinRead                                                          
0000dd71  ti_sysbios_knl_Event_pendTimeout__I                                  
0000dda3  GPIOPinWrite                                                         
0000dda9  ti_sysbios_knl_Semaphore_pendTimeout__I                              
0000de0d  GPIO_enableInt                                                       
0000de3d  GPIO_read                                                            
0000de6d  InternalUSBTickInit                                                  
0000de9d  PWMTiva_init                                                         
0000defd  USBEndpointDataPut                                                   
0000df2d  USBHMSCBlockRead                                                     
0000df5d  USBHMSCBlockWrite                                                    
0000dfbd  ti_sysbios_gates_GateHwi_Object__create__S                           
0000dfed  ti_sysbios_gates_GateMutex_Object__create__S                         
0000e01d  ti_sysbios_heaps_HeapMem_Object__create__S                           
0000e04d  ti_sysbios_knl_Semaphore_construct                                   
0000e07d  ti_uia_loggers_LoggerStopMode_Object__create__S                      
0000e0ad  xdc_runtime_SysMin_abort__E                                          
0000e0ad  xdc_runtime_System_SupportProxy_abort__E                             
0000e0dd  xdc_runtime_System_processAtExit__E                                  
0000e10d  GrStringNextCharGet                                                  
0000e13b  USBEndpointDataSend                                                  
0000e169  USBHostHubAddrSet                                                    
0000e199  ConfigDescFree                                                       
0000e1f1  GrFontBaselineGet                                                    
0000e21d  InternalUSBHCDSendEvent                                              
0000e249  SDSPITiva_close                                                      
0000e275  USBDescGet                                                           
0000e2cd  disk_register                                                        
0000e2f9  ti_sysbios_BIOS_atExitFunc__I                                        
0000e325  xdc_runtime_System_Module_GateProxy_leave__E                         
0000e329  ti_sysbios_family_arm_m3_Hwi_Instance_finalize__E                    
0000e355  ti_sysbios_gates_GateMutex_construct                                 
0000e381  ti_sysbios_knl_Clock_doTick__I                                       
0000e3ad  ti_sysbios_knl_Queue_construct                                       
0000e3d9  uDMAChannelAssign                                                    
0000e431  xdc_runtime_Text_cordText__E                                         
0000e45d  GPIODirModeSet                                                       
0000e487  USBDCDConfigDescGetNum                                               
0000e4b1  xdc_runtime_System_putchar__I                                        
0000e4dd  EMACSnow_isLinkUp                                                    
0000e52d  USBDescGetNum                                                        
0000e555  USBHostEndpointStatusClear                                           
0000e57d  USBIntEnableControl                                                  
0000e5f5  disk_unregister                                                      
0000e61d  xdc_runtime_System_aprintf_va__F                                     
0000e621  ti_sysbios_knl_Semaphore_Instance_finalize__E                        
0000e649  uDMAChannelModeGet                                                   
0000e671  EMACPHYRead                                                          
0000e697  GrFontInfoGet                                                        
0000e6bd  USBEndpointDataToggleClear                                           
0000e6e3  USBHostSpeedGet                                                      
0000e709  ti_sysbios_family_arm_m3_Hwi_pendSV__I                               
0000e72d  ti_sysbios_family_arm_m3_Hwi_return                                  
0000e72f  xdc_runtime_System_avprintf__E                                       
0000e755  USBDevEndpointDataAck                                                
0000e779  USBEndpointDMADisable                                                
0000e79d  USBEndpointDMAEnable                                                 
0000e7e5  ti_sysbios_BIOS_errorRaiseHook__I                                    
0000e809  ti_sysbios_BIOS_registerRTSLock__I                                   
0000e82d  ti_sysbios_BIOS_removeRTSLock__I                                     
0000e851  ti_sysbios_BIOS_RtsGateProxy_Object__delete__S                       
0000e851  ti_sysbios_gates_GateMutex_Object__delete__S                         
0000e851  ti_sysbios_heaps_HeapMem_Module_GateProxy_Object__delete__S          
0000e875  xdc_runtime_System_printf_va__F                                      
0000e879  ti_sysbios_knl_Clock_Module_startup__E                               
0000e89d  ti_sysbios_knl_Semaphore_Object__delete__S                           
0000e8c1  ti_sysbios_knl_Task_restore__E                                       
0000e8e5  uDMAChannelControlSet                                                
0000e909  xdc_runtime_System_vprintf__E                                        
0000e92d  GrFontGlyphDataGet                                                   
0000e94f  LCDModeSet                                                           
0000e971  PWMGenConfigure                                                      
0000e993  PWMTiva_getPeriodCounts                                              
0000e9b9  ti_sysbios_family_arm_lm4_Timer_write__I                             
0000e9fd  xdc_runtime_SysMin_output__I                                         
0000ea21  GPIO_clearInt                                                        
0000eaa1  USBHostEndpointDataAck                                               
0000eac1  USBStackModeSet                                                      
0000eb01  ti_sysbios_BIOS_rtsLock__I                                           
0000eb21  ti_sysbios_BIOS_startFunc__I                                         
0000eb41  ti_sysbios_family_arm_m3_Hwi_clearInterrupt__E                       
0000eb41  ti_sysbios_hal_Hwi_HwiProxy_clearInterrupt__E                        
0000eb61  ti_sysbios_family_arm_m3_Hwi_excHandlerAsm__I                        
0000eb81  ti_sysbios_family_arm_m3_Hwi_excHandler__I                           
0000eba1  ti_sysbios_gates_GateHwi_Object__delete__S                           
0000eba1  xdc_runtime_Main_Module_GateProxy_Object__delete__S                  
0000eba1  xdc_runtime_System_Module_GateProxy_Object__delete__S                
0000ebc1  ti_sysbios_gates_GateMutex_Object__destruct__S                       
0000ebe1  ti_sysbios_heaps_HeapMem_Object__delete__S                           
0000ebe1  xdc_runtime_Memory_HeapProxy_Object__delete__S                       
0000ec01  ti_sysbios_knl_Clock_Object__destruct__S                             
0000ec21  ti_sysbios_knl_Idle_run__E                                           
0000ec41  ti_sysbios_knl_Semaphore_Object__destruct__S                         
0000ec61  ti_uia_loggers_LoggerStopMode_Object__delete__S                      
0000ec81  xdc_runtime_Registry_findById__E                                     
0000eca1  xdc_runtime_SysMin_Module_startup__E                                 
0000ecc1  GrFontCodepageGet                                                    
0000ecdf  PWMPulseWidthSet                                                     
0000ecfd  PWMTiva_getPeriodMicroSecs                                           
0000ed1b  USBDescGetInterface                                                  
0000ed39  USBULPIRegRead                                                       
0000ed57  USBULPIRegWrite                                                      
0000ed75  OTGDeviceDisconnect                                                  
0000ed91  UARTDisable                                                          
0000edad  USBDCDConfigGetInterface                                             
0000edc9  USBDCDStallEP0                                                       
0000ede5  USBEndpointDataAvail                                                 
0000ee01  USBHostPwrConfig                                                     
0000ee1d  USBMSCHFatFsTiva_diskIOctl                                           
0000ee39  WatchdogTiva_setReload                                               
0000ee71  ti_sysbios_family_arm_m3_Hwi_Object__destruct__S                     
0000ee91  ti_sysbios_family_arm_m3_Hwi_doTaskRestore__I                        
0000eeb1  ti_sysbios_gates_GateMutex_Instance_init__E                          
0000eecd  ti_sysbios_knl_Queue_Object__destruct__S                             
0000eee9  ti_sysbios_knl_Task_Object__destruct__S                              
0000ef09  ti_sysbios_knl_Task_enter__I                                         
0000ef25  ti_uia_loggers_LoggerStopMode_Instance_init__E                       
0000ef41  xdc_runtime_Error_raiseX__E                                          
0000ef5d  xdc_runtime_Memory_valloc__E                                         
0000ef79  xdc_runtime_SysMin_exit__E                                           
0000ef79  xdc_runtime_System_SupportProxy_exit__E                              
0000ef95  xdc_runtime_System_abort__E                                          
0000efb1  USBEndpointDMAChannel                                                
0000efcb  USBOTGSessionRequest                                                 
0000efe5  ff_cre_syncobj                                                       
0000f001  ti_sysbios_knl_Task_sleepTimeout__I                                  
0000f01b  xdc_runtime_System_aprintf__E                                        
0000f035  xdc_runtime_System_printf__E                                         
0000f04f  GPIOPinTypeGPIOOutput                                                
0000f069  UART_Params_init                                                     
0000f081  UART_open                                                            
0000f099  USBDCDConfigDescGetSize                                              
0000f0e1  USBHHubEnumerationComplete                                           
0000f0f9  USBHHubEnumerationError                                              
0000f111  USBHostRequestINClear                                                
0000f129  USBMSCHFatFsTiva_diskStatus                                          
0000f141  _args_main                                                           
0000f159  ti_sysbios_BIOS_rtsUnlock__I                                         
0000f171  ti_sysbios_family_arm_lm4_Timer_Module__startupDone__F               
0000f171  ti_sysbios_family_arm_lm4_Timer_Module__startupDone__S               
0000f171  ti_sysbios_knl_Clock_TimerProxy_Module__startupDone__S               
0000f189  ti_sysbios_family_arm_m3_Hwi_Handle__label__S                        
0000f189  ti_sysbios_hal_Hwi_HwiProxy_Handle__label__S                         
0000f1a1  ti_sysbios_family_arm_m3_Hwi_Module__startupDone__F                  
0000f1a1  ti_sysbios_family_arm_m3_Hwi_Module__startupDone__S                  
0000f1a1  ti_sysbios_hal_Hwi_HwiProxy_Module__startupDone__S                   
0000f1b9  ti_sysbios_family_arm_m3_TaskSupport_swap__E                         
0000f1b9  ti_sysbios_knl_Task_SupportProxy_swap__E                             
0000f1c5  ti_sysbios_knl_Task_swapReturn                                       
0000f1d1  ti_sysbios_gates_GateHwi_Handle__label__S                            
0000f1d1  xdc_runtime_Main_Module_GateProxy_Handle__label__S                   
0000f1d1  xdc_runtime_System_Module_GateProxy_Handle__label__S                 
0000f1e9  ti_sysbios_BIOS_RtsGateProxy_Handle__label__S                        
0000f1e9  ti_sysbios_gates_GateMutex_Handle__label__S                          
0000f1e9  ti_sysbios_heaps_HeapMem_Module_GateProxy_Handle__label__S           
0000f201  ti_sysbios_gates_GateMutex_leave__E                                  
0000f219  ti_sysbios_heaps_HeapMem_Handle__label__S                            
0000f219  xdc_runtime_Memory_HeapProxy_Handle__label__S                        
0000f231  ti_sysbios_knl_Task_Handle__label__S                                 
0000f249  ti_uia_loggers_LoggerStopMode_Handle__label__S                       
0000f261  uDMAChannelDisable                                                   
0000f279  uDMAChannelEnable                                                    
0000f291  uDMAChannelIsEnabled                                                 
0000f2a9  xdc_runtime_Error_check__E                                           
0000f2c1  xdc_runtime_System_exit__E                                           
0000f2d9  xdc_runtime_Text_ropeText__E                                         
0000f2f1  GrStringDraw                                                         
0000f307  I2CMasterErr                                                         
0000f31d  USBDescGetInterfaceEndpoint                                          
0000f333  USBHostAddrSet                                                       
0000f349  ti_sysbios_BIOS_exitFunc__I                                          
0000f35f  ti_uia_loggers_LoggerStopMode_disable__E                             
0000f375  ti_uia_loggers_LoggerStopMode_enable__E                              
0000f38d  FlashUserGet                                                         
0000f3a1  PWMClockSet                                                          
0000f3b5  SysCtlPWMClockSet                                                    
0000f3c9  SysCtlUSBPLLEnable                                                   
0000f3dd  UARTEnable                                                           
0000f3f1  USBDMAChannelConfigSet                                               
0000f405  USBHMSCDriveOpen                                                     
0000f419  USBHostReset                                                         
0000f42d  USBHostResume                                                        
0000f455  USBIntEnableEndpoint                                                 
0000f47d  _register_unlock                                                     
0000f483  _register_lock                                                       
0000f48b  _nop                                                                 
0000f491  strcpy                                                               
0000f4a5  strlen                                                               
0000f4b9  ti_sysbios_family_arm_m3_Hwi_Object__get__S                          
0000f4d1  ti_sysbios_family_arm_m3_Hwi_switchFromBootStack__E                  
0000f4d1  ti_sysbios_hal_Hwi_HwiProxy_switchFromBootStack__E                   
0000f4e5  ti_sysbios_heaps_HeapMem_Object__get__S                              
0000f4f9  ti_sysbios_knl_Mailbox_Object__get__S                                
0000f50d  GPIOPinTypeEthernetLED                                               
0000f51f  GPIOPinTypeGPIOInput                                                 
0000f531  GPIOPinTypeI2C                                                       
0000f543  GPIOPinTypeI2CSCL                                                    
0000f555  GPIOPinTypePWM                                                       
0000f567  GPIOPinTypeSSI                                                       
0000f579  GPIOPinTypeUART                                                      
0000f58b  GPIOPinTypeUSBAnalog                                                 
0000f59d  GPIOPinTypeUSBDigital                                                
0000f5af  PWMGenPeriodGet                                                      
0000f5c1  PWMOutputInvert                                                      
0000f5d3  PWMOutputState                                                       
0000f5e5  RingBuf_construct                                                    
0000f5f7  SDSPITiva_init                                                       
0000f609  SSIDataGetNonBlocking                                                
0000f62d  USBDMAChannelDisable                                                 
0000f63f  USBDMAChannelEnable                                                  
0000f651  USBDMAChannelIntDisable                                              
0000f663  USBDMAChannelIntEnable                                               
0000f675  USBHostLPMConfig                                                     
0000f687  USBHostRequestIN                                                     
0000f699  ti_sysbios_hal_Hwi_Module_startup__E                                 
0000f6ab  GrContextFontSet                                                     
0000f6b1  ti_sysbios_knl_Event_sync__E                                         
0000f6c3  xdc_runtime_Startup_exec__I                                          
0000f6d5  ti_catalog_arm_cortexm4_tiva_ce_Boot_init__I                         
0000f6e5  PWMGenPeriodSet                                                      
0000f6f5  SDSPITiva_diskStatus                                                 
0000f705  USBEndpointStatus                                                    
0000f715  USBHCDPowerAutomatic                                                 
0000f725  USBHCDRegisterDrivers                                                
0000f749  ti_sysbios_BIOS_getCpuFreq__E                                        
0000f749  ti_sysbios_family_arm_lm4_TimestampProvider_getFreq__E               
0000f749  xdc_runtime_Timestamp_SupportProxy_getFreq__E                        
0000f759  ti_sysbios_BIOS_setThreadType__E                                     
0000f769  ti_sysbios_BIOS_start__E                                             
0000f779  ti_sysbios_family_arm_lm4_TimestampProvider_rolloverFunc__E          
0000f789  ti_sysbios_family_arm_m3_TaskSupport_glue                            
0000f799  ti_sysbios_gates_GateMutex_Instance_finalize__E                      
0000f7a9  ti_sysbios_knl_Task_Object__get__S                                   
0000f7b9  ti_sysbios_knl_Task_disable__E                                       
0000f7c9  ti_uia_loggers_LoggerStopMode_Object__get__S                         
0000f7d9  ti_uia_loggers_LoggerStopMode_isEmpty__E                             
0000f7e9  uDMAEnable                                                           
0000f7f9  xdc_runtime_Gate_leaveSystem__E                                      
0000f809  xdc_runtime_Memory_free__E                                           
0000f819  xdc_runtime_SysMin_ready__E                                          
0000f819  xdc_runtime_System_SupportProxy_ready__E                             
0000f829  xdc_runtime_System_vsnprintf__E                                      
0000f847  GPIOIntStatus                                                        
0000f855  GrImageDraw                                                          
0000f863  UARTCharGetNonBlocking                                               
0000f871  UARTCharPutNonBlocking                                               
0000f87f  USBDMAChannelStatus                                                  
0000f88d  USBDevLPMEnable                                                      
0000f89b  USBHMSCDriveClose                                                    
0000f8a9  USBHostPwrDisable                                                    
0000f8b7  USBHostPwrEnable                                                     
0000f8c5  USBMSCHFatFsTiva_init                                                
0000f8d3  USBULPIDisable                                                       
0000f8e1  USBULPIEnable                                                        
0000f8ef  WatchdogStallDisable                                                 
0000f8fd  WatchdogStallEnable                                                  
0000f90b  __TI_decompress_none                                                 
0000f919  ff_del_syncobj                                                       
0000f929  ti_sysbios_knl_Idle_loop__E                                          
0000f939  ti_sysbios_knl_Queue_empty__E                                        
0000f949  EMACSnow_init                                                        
0000f955  GPIOIntEnable                                                        
0000f961  LCDIDDCommandWrite                                                   
0000f96d  LCDIDDDataWrite                                                      
0000f979  PWMGenDisable                                                        
0000f985  PWMGenEnable                                                         
0000f991  RingBuf_peek                                                         
0000f99d  SSIDataGet                                                           
0000f9a9  UARTFlowControlSet                                                   
0000f9b5  UARTTiva_init                                                        
0000f9c1  USBEndpointPacketCountSet                                            
0000f9cd  USBHCDHubDeviceDisconnected                                          
0000f9d9  USBHCDPowerConfigInit                                                
0000f9e5  USBLPMIntEnable                                                      
0000f9f1  WatchdogUnlock                                                       
0000f9fd  __TI_zero_init                                                       
0000fa09  ti_sysbios_family_arm_lm4_Timer_getMaxTicks__E                       
0000fa19  ti_sysbios_family_arm_lm4_TimestampProvider_startTimer__E            
0000fa25  ti_sysbios_family_arm_m3_Hwi_Params__init__S                         
0000fa25  ti_sysbios_hal_Hwi_HwiProxy_Params__init__S                          
0000fa31  ti_sysbios_family_arm_m3_Hwi_disableFxn__E                           
0000fa31  ti_sysbios_hal_Hwi_HwiProxy_disable__E                               
0000fa41  ti_sysbios_family_arm_m3_TaskSupport_checkStack__E                   
0000fa41  ti_sysbios_knl_Task_SupportProxy_checkStack__E                       
0000fa51  ti_sysbios_family_arm_m3_TaskSupport_getStackAlignment__E            
0000fa51  ti_sysbios_knl_Task_SupportProxy_getStackAlignment__E                
0000fa61  ti_sysbios_gates_GateHwi_enter__E                                    
0000fa6d  ti_sysbios_BIOS_RtsGateProxy_Params__init__S                         
0000fa6d  ti_sysbios_gates_GateMutex_Params__init__S                           
0000fa6d  ti_sysbios_heaps_HeapMem_Module_GateProxy_Params__init__S            
0000fa79  ti_sysbios_knl_Clock_Params__init__S                                 
0000fa85  ti_sysbios_knl_Queue_Object__get__S                                  
0000fa91  ti_sysbios_knl_Semaphore_Params__init__S                             
0000fa9d  ti_sysbios_knl_Task_Params__init__S                                  
0000faa9  uDMAControlBaseSet                                                   
0000fab5  uDMAErrorStatusClear                                                 
0000fac1  uDMAErrorStatusGet                                                   
0000facd  uDMAIntStatus                                                        
0000fad9  xdc_runtime_Error_init__E                                            
0000fae5  xdc_runtime_Gate_enterSystem__E                                      
0000faf1  xdc_runtime_Memory_calloc__E                                         
0000fafd  xdc_runtime_Memory_getMaxDefaultTypeAlign__E                         
0000fb09  I2CMasterDisable                                                     
0000fb13  I2CMasterEnable                                                      
0000fb1d  I2CTiva_init                                                         
0000fb27  SPITivaDMA_init                                                      
0000fb31  SSIDMADisable                                                        
0000fb3b  SSIDataPut                                                           
0000fb45  SSIDisable                                                           
0000fb4f  SSIEnable                                                            
0000fb59  SSIIntDisable                                                        
0000fb63  UARTCharGet                                                          
0000fb6d  UARTCharPut                                                          
0000fb77  UARTIntDisable                                                       
0000fb81  UARTIntStatus                                                        
0000fb8b  UART_read                                                            
0000fb95  UART_write                                                           
0000fb9f  USBClockEnable                                                       
0000fba9  USBControllerVersion                                                 
0000fbb3  USBDMAChannelAddressSet                                              
0000fbbd  USBDMAChannelCountSet                                                
0000fbc7  USBDevDisconnect                                                     
0000fbd1  USBHostSuspend                                                       
0000fbdb  USBIntStatusEndpoint                                                 
0000fbe5  USBLibDMAAddrGet                                                     
0000fbef  USBModeGet                                                           
0000fbf9  USBNumEndpointsGet                                                   
0000fc03  WatchdogEnable                                                       
0000fc0d  WatchdogResetDisable                                                 
0000fc17  WatchdogResetEnable                                                  
0000fc21  xdc_runtime_Memory_HeapProxy_alloc__E                                
0000fc2b  xdc_runtime_Memory_HeapProxy_free__E                                 
0000fc35  xdc_runtime_Text_visitRope__I                                        
0000fc3f  GrMapISO8859_1_Unicode                                               
0000fc47  I2CMasterIntClear                                                    
0000fc4f  I2CMasterSlaveAddrSet                                                
0000fc5f  SSIDMAEnable                                                         
0000fc67  SSIIntEnable                                                         
0000fc6f  UARTIntEnable                                                        
0000fc77  USBFIFOAddrGet                                                       
0000fc7f  USBHostMode                                                          
0000fc87  USBHostRequestStatus                                                 
0000fc8f  USBOTGMode                                                           
0000fc97  WatchdogLock                                                         
0000fc9f  WatchdogTiva_clear                                                   
0000fca7  WatchdogTiva_init                                                    
0000fcc7  ti_sysbios_family_arm_lm4_Timer_masterDisable__I                     
0000fcd1  ti_sysbios_family_arm_m3_Hwi_startup__E                              
0000fcd1  ti_sysbios_hal_Hwi_HwiProxy_startup__E                               
0000fce1  I2CMasterIntDisable                                                  
0000fce7  I2CMasterIntEnable                                                   
0000fced  I2CTiva_control                                                      
0000fcf3  SDSPITiva_control                                                    
0000fcf9  SPITivaDMA_control                                                   
0000fd05  SysCtlDelay                                                          
0000fd0b  UARTFIFOLevelSet                                                     
0000fd11  USBDMAChannelIntStatus                                               
0000fd17  USBLPMIntStatus                                                      
0000fd1d  WatchdogIntClear                                                     
0000fd23  WatchdogTiva_control                                                 
0000fd29  __xdc__init                                                          
0000fd2f  __TI_decompress_rle24                                                
0000fd3b  xdc_runtime_System_Module_startup__E                                 
0000fd41  ti_sysbios_family_arm_lm4_TimestampProvider_Module_startup__E        
0000fd49  ti_sysbios_family_arm_m3_Hwi_restoreFxn__E                           
0000fd49  ti_sysbios_hal_Hwi_HwiProxy_restore__E                               
0000fd51  ti_sysbios_gates_GateHwi_leave__E                                    
0000fd59  ti_sysbios_heaps_HeapMem_isBlocking__E                               
0000fd61  ti_sysbios_knl_Clock_stop__E                                         
0000fd69  ti_sysbios_knl_Queue_Instance_init__E                                
0000fd71  ti_sysbios_family_arm_lm4_Timer_getPeriod__E                         
0000fd79  ti_sysbios_gates_GateHwi_query__E                                    
0000fd79  xdc_runtime_Main_Module_GateProxy_query__E                           
0000fd79  xdc_runtime_System_Module_GateProxy_query__E                         
0000fd81  ti_sysbios_BIOS_RtsGateProxy_query__E                                
0000fd81  ti_sysbios_gates_GateMutex_query__E                                  
0000fd81  ti_sysbios_heaps_HeapMem_Module_GateProxy_query__E                   
0000fd89  ti_sysbios_knl_Task_startup__E                                       
0000fd91  ti_sysbios_family_arm_m3_Hwi_doSwiRestore__I                         
0000fd99  ti_sysbios_gates_GateHwi_Instance_init__E                            
0000fd9c  xdc_runtime_Text_charTab__A                                          
0001520d  xdc_runtime_Error_policy__C                                          
0001520e  ti_catalog_arm_cortexm4_tiva_ce_Boot_Module__id__C                   
00015400  g_sFontCmss18b                                                       
0001561c  spiTivaDMAHWAttrs                                                    
00015770  SPITivaDMA_fxnTable                                                  
000157d4  ti_uia_loggers_LoggerStopMode_Module__FXNS__C                        
00015964  ti_sysbios_knl_Task_Object__PARAMS__C                                
000159d4  I2C_config                                                           
00015a04  SPI_config                                                           
00015a34  USBMSCHFatFsTiva_fxnTable                                            
00015a48  USBMSCHFatFs_eventDriver                                             
00015a94  ti_sysbios_family_arm_m3_Hwi_Object__PARAMS__C                       
00015ac4  UARTTiva_fxnTable                                                    
00015aec  g_sKentec320x240x16_SSD2119                                          
00015b14  ti_sysbios_heaps_HeapMem_Module__FXNS__C                             
00015b3c  ti_uia_loggers_LoggerStopMode_Object__PARAMS__C                      
00015b64  xdc_runtime_Startup_sfxnTab__A                                       
00015b8c  PWM_config                                                           
00015bb0  UART_defaultParams                                                   
00015bd4  i2cTivaHWAttrs                                                       
00015bf8  sdspiTivaHWattrs                                                     
00015c1c  ti_sysbios_gates_GateHwi_Module__FXNS__C                             
00015c40  ti_sysbios_gates_GateMutex_Module__FXNS__C                           
00015c64  ti_sysbios_heaps_HeapMem_Object__PARAMS__C                           
00015c88  ti_sysbios_knl_Clock_Object__PARAMS__C                               
00015cac  ti_sysbios_knl_Semaphore_Object__PARAMS__C                           
00015cd0  PWMTiva_fxnTable                                                     
00015cec  PWMTiva_MAX_PRESCALAR                                                
00015cee  PWMTiva_MAX_MATCH_VALUE                                              
00015cf0  SPI_defaultParams                                                    
00015d10  ti_sysbios_family_arm_m3_Hwi_Object__DESC__C                         
00015d30  ti_sysbios_gates_GateHwi_Object__DESC__C                             
00015d50  ti_sysbios_gates_GateMutex_Object__DESC__C                           
00015d70  ti_sysbios_heaps_HeapMem_Object__DESC__C                             
00015d90  ti_sysbios_knl_Clock_Object__DESC__C                                 
00015db0  ti_sysbios_knl_Queue_Object__DESC__C                                 
00015dd0  ti_sysbios_knl_Semaphore_Object__DESC__C                             
00015df0  ti_sysbios_knl_Task_Object__DESC__C                                  
00015e10  ti_uia_loggers_LoggerStopMode_Object__DESC__C                        
00015e30  I2CTiva_fxnTable                                                     
00015e4c  EMAC_config                                                          
00015e64  echo                                                                 
00015e68  LCD                                                                  
00015e6c  FESTO                                                                
00015e70  FestoEvents                                                          
00015e74  DisplayEvents                                                        
00015e78  DisplayMailbox                                                       
00015e7c  SDSPI_config                                                         
00015e94  UART_config                                                          
00015eac  USBMSCHFatFs_config                                                  
00015ec4  Watchdog_config                                                      
00015edc  WatchdogTiva_fxnTable                                                
00015ef4  pwmTivaHWAttrs                                                       
00015f0c  ti_sysbios_gates_GateHwi_Object__PARAMS__C                           
00015f24  ti_sysbios_gates_GateMutex_Object__PARAMS__C                         
00015f3c  ti_sysbios_knl_Queue_Object__PARAMS__C                               
00015f54  uartTivaHWAttrs                                                      
00015f84  GPIOTiva_config                                                      
00015f98  xdc_runtime_Startup_firstFxns__A                                     
00015fac  xdc_runtime_Startup_sfxnRts__A                                       
00015fd2  ti_sysbios_family_arm_lm4_TimestampProvider_useClockTimer__C         
00015fd4  I2C_defaultParams                                                    
00015fe4  SDSPITiva_fxnTable                                                   
00015ff4  USBMSCHFatFs_defaultParams                                           
00016004  emacHWAttrs                                                          
00016014  g_psDefaultCodePointMapTable                                         
00016024  g_sUSBHostMSCClassDriver                                             
00016034  watchdogTivaHWAttrs                                                  
00016044  xdc_runtime_Text_nodeTab__A                                          
00016054  PWM_defaultParams                                                    
00016060  Watchdog_defaultParams                                               
00016074  EMACSnow_fxnTable                                                    
0001607c  SDSPI_defaultParams                                                  
00016084  ti_sysbios_family_arm_m3_Hwi_excHookFuncs__A                         
0001608c  ti_sysbios_knl_Idle_funcList__C                                      
00016094  usbmschfatfstivaHWAttrs                                              
0001609c  xdc_runtime_Startup_firstFxns__C                                     
000160a4  xdc_runtime_Startup_lastFxns__C                                      
000160ac  ti_catalog_arm_cortexm4_tiva_ce_Boot_A_mustNotUseEnhancedClockMode__C
000160b0  ti_catalog_arm_cortexm4_tiva_ce_Boot_Module__diagsEnabled__C         
000160b4  ti_catalog_arm_cortexm4_tiva_ce_Boot_Module__diagsIncluded__C        
000160b8  ti_catalog_arm_cortexm4_tiva_ce_Boot_Module__diagsMask__C            
000160bc  ti_sysbios_family_arm_lm4_Timer_enableFunc__C                        
000160c0  ti_sysbios_family_arm_lm4_Timer_numTimerDevices__C                   
000160c4  ti_sysbios_family_arm_lm4_Timer_startupNeeded__C                     
000160c8  ti_sysbios_family_arm_m3_Hwi_E_NMI__C                                
000160cc  ti_sysbios_family_arm_m3_Hwi_E_alreadyDefined__C                     
000160d0  ti_sysbios_family_arm_m3_Hwi_E_busFault__C                           
000160d4  ti_sysbios_family_arm_m3_Hwi_E_debugMon__C                           
000160d8  ti_sysbios_family_arm_m3_Hwi_E_hardFault__C                          
000160dc  ti_sysbios_family_arm_m3_Hwi_E_memFault__C                           
000160e0  ti_sysbios_family_arm_m3_Hwi_E_noIsr__C                              
000160e4  ti_sysbios_family_arm_m3_Hwi_E_reserved__C                           
000160e8  ti_sysbios_family_arm_m3_Hwi_E_svCall__C                             
000160ec  ti_sysbios_family_arm_m3_Hwi_E_usageFault__C                         
000160f0  ti_sysbios_family_arm_m3_Hwi_LD_end__C                               
000160f4  ti_sysbios_family_arm_m3_Hwi_LM_begin__C                             
000160f8  ti_sysbios_family_arm_m3_Hwi_Module__diagsEnabled__C                 
000160fc  ti_sysbios_family_arm_m3_Hwi_Module__diagsIncluded__C                
00016100  ti_sysbios_family_arm_m3_Hwi_Module__diagsMask__C                    
00016104  ti_sysbios_family_arm_m3_Hwi_Module__loggerFxn1__C                   
00016108  ti_sysbios_family_arm_m3_Hwi_Module__loggerFxn8__C                   
0001610c  ti_sysbios_family_arm_m3_Hwi_Module__loggerObj__C                    
00016110  ti_sysbios_family_arm_m3_Hwi_NUM_INTERRUPTS__C                       
00016114  ti_sysbios_family_arm_m3_Hwi_Object__count__C                        
00016118  ti_sysbios_family_arm_m3_Hwi_ccr__C                                  
0001611c  ti_sysbios_family_arm_m3_Hwi_excHandlerFunc__C                       
00016120  ti_sysbios_family_arm_m3_Hwi_excHookFuncs__C                         
00016124  ti_sysbios_family_arm_m3_Hwi_nullIsrFunc__C                          
00016128  ti_sysbios_family_arm_m3_Hwi_priGroup__C                             
0001612c  ti_sysbios_family_arm_m3_TaskSupport_stackAlignment__C               
00016130  ti_sysbios_gates_GateMutex_A_badContext__C                           
00016134  ti_sysbios_gates_GateMutex_Instance_State_sem__O                     
00016138  ti_sysbios_gates_GateMutex_Module__diagsEnabled__C                   
0001613c  ti_sysbios_gates_GateMutex_Module__diagsIncluded__C                  
00016140  ti_sysbios_gates_GateMutex_Module__diagsMask__C                      
00016144  ti_sysbios_heaps_HeapMem_A_align__C                                  
00016148  ti_sysbios_heaps_HeapMem_A_heapSize__C                               
0001614c  ti_sysbios_heaps_HeapMem_A_invalidFree__C                            
00016150  ti_sysbios_heaps_HeapMem_A_zeroBlock__C                              
00016154  ti_sysbios_heaps_HeapMem_E_memory__C                                 
00016158  ti_sysbios_heaps_HeapMem_Module__diagsEnabled__C                     
0001615c  ti_sysbios_heaps_HeapMem_Module__diagsIncluded__C                    
00016160  ti_sysbios_heaps_HeapMem_Module__diagsMask__C                        
00016164  ti_sysbios_heaps_HeapMem_Module__gateObj__C                          
00016168  ti_sysbios_heaps_HeapMem_Object__count__C                            
0001616c  ti_sysbios_heaps_HeapMem_reqAlign__C                                 
00016170  ti_sysbios_knl_Clock_A_badThreadType__C                              
00016174  ti_sysbios_knl_Clock_LM_begin__C                                     
00016178  ti_sysbios_knl_Clock_LM_tick__C                                      
0001617c  ti_sysbios_knl_Clock_LW_delayed__C                                   
00016180  ti_sysbios_knl_Clock_Module_State_clockQ__O                          
00016184  ti_sysbios_knl_Clock_Module__diagsEnabled__C                         
00016188  ti_sysbios_knl_Clock_Module__diagsIncluded__C                        
0001618c  ti_sysbios_knl_Clock_Module__diagsMask__C                            
00016190  ti_sysbios_knl_Clock_Module__loggerFxn1__C                           
00016194  ti_sysbios_knl_Clock_Module__loggerFxn2__C                           
00016198  ti_sysbios_knl_Clock_Module__loggerObj__C                            
0001619c  ti_sysbios_knl_Event_A_badContext__C                                 
000161a0  ti_sysbios_knl_Event_A_eventInUse__C                                 
000161a4  ti_sysbios_knl_Event_A_nullEventId__C                                
000161a8  ti_sysbios_knl_Event_A_nullEventMasks__C                             
000161ac  ti_sysbios_knl_Event_A_pendTaskDisabled__C                           
000161b0  ti_sysbios_knl_Event_Instance_State_pendQ__O                         
000161b4  ti_sysbios_knl_Event_LM_pend__C                                      
000161b8  ti_sysbios_knl_Event_LM_post__C                                      
000161bc  ti_sysbios_knl_Event_Module__diagsEnabled__C                         
000161c0  ti_sysbios_knl_Event_Module__diagsIncluded__C                        
000161c4  ti_sysbios_knl_Event_Module__diagsMask__C                            
000161c8  ti_sysbios_knl_Event_Module__loggerFxn4__C                           
000161cc  ti_sysbios_knl_Event_Module__loggerFxn8__C                           
000161d0  ti_sysbios_knl_Event_Module__loggerObj__C                            
000161d4  ti_sysbios_knl_Idle_funcList__A                                      
000161d8  ti_sysbios_knl_Mailbox_Instance_State_freeQue__O                     
000161dc  ti_sysbios_knl_Mailbox_Object__count__C                              
000161e0  ti_sysbios_knl_Mailbox_maxTypeAlign__C                               
000161e4  ti_sysbios_knl_Semaphore_A_badContext__C                             
000161e8  ti_sysbios_knl_Semaphore_A_overflow__C                               
000161ec  ti_sysbios_knl_Semaphore_A_pendTaskDisabled__C                       
000161f0  ti_sysbios_knl_Semaphore_Instance_State_pendQ__O                     
000161f4  ti_sysbios_knl_Semaphore_LM_pend__C                                  
000161f8  ti_sysbios_knl_Semaphore_LM_post__C                                  
000161fc  ti_sysbios_knl_Semaphore_Module__diagsEnabled__C                     
00016200  ti_sysbios_knl_Semaphore_Module__diagsIncluded__C                    
00016204  ti_sysbios_knl_Semaphore_Module__diagsMask__C                        
00016208  ti_sysbios_knl_Semaphore_Module__loggerFxn2__C                       
0001620c  ti_sysbios_knl_Semaphore_Module__loggerFxn4__C                       
00016210  ti_sysbios_knl_Semaphore_Module__loggerObj__C                        
00016214  ti_sysbios_knl_Semaphore_eventPost__C                                
00016218  ti_sysbios_knl_Semaphore_eventSync__C                                
0001621c  ti_sysbios_knl_Task_A_badPriority__C                                 
00016220  ti_sysbios_knl_Task_A_badTaskState__C                                
00016224  ti_sysbios_knl_Task_A_badThreadType__C                               
00016228  ti_sysbios_knl_Task_A_badTimeout__C                                  
0001622c  ti_sysbios_knl_Task_A_noPendElem__C                                  
00016230  ti_sysbios_knl_Task_A_sleepTaskDisabled__C                           
00016234  ti_sysbios_knl_Task_E_spOutOfBounds__C                               
00016238  ti_sysbios_knl_Task_E_stackOverflow__C                               
0001623c  ti_sysbios_knl_Task_LD_block__C                                      
00016240  ti_sysbios_knl_Task_LD_exit__C                                       
00016244  ti_sysbios_knl_Task_LD_ready__C                                      
00016248  ti_sysbios_knl_Task_LM_sleep__C                                      
0001624c  ti_sysbios_knl_Task_LM_switch__C                                     
00016250  ti_sysbios_knl_Task_Module_State_inactiveQ__O                        
00016254  ti_sysbios_knl_Task_Module__diagsEnabled__C                          
00016258  ti_sysbios_knl_Task_Module__diagsIncluded__C                         
0001625c  ti_sysbios_knl_Task_Module__diagsMask__C                             
00016260  ti_sysbios_knl_Task_Module__loggerFxn2__C                            
00016264  ti_sysbios_knl_Task_Module__loggerFxn4__C                            
00016268  ti_sysbios_knl_Task_Module__loggerObj__C                             
0001626c  ti_sysbios_knl_Task_Object__count__C                                 
00016270  ti_sysbios_knl_Task_allBlockedFunc__C                                
00016274  ti_sysbios_knl_Task_defaultStackHeap__C                              
00016278  ti_sysbios_knl_Task_defaultStackSize__C                              
0001627c  ti_sysbios_knl_Task_numConstructedTasks__C                           
00016280  ti_sysbios_knl_Task_numPriorities__C                                 
00016284  ti_sysbios_utils_Load_LS_cpuLoad__C                                  
00016288  ti_sysbios_utils_Load_LS_hwiLoad__C                                  
0001628c  ti_sysbios_utils_Load_Module__diagsEnabled__C                        
00016290  ti_sysbios_utils_Load_Module__diagsIncluded__C                       
00016294  ti_sysbios_utils_Load_Module__diagsMask__C                           
00016298  ti_sysbios_utils_Load_Module__loggerFxn1__C                          
0001629c  ti_sysbios_utils_Load_Module__loggerFxn2__C                          
000162a0  ti_sysbios_utils_Load_Module__loggerObj__C                           
000162a4  ti_sysbios_utils_Load_postUpdate__C                                  
000162a8  ti_sysbios_utils_Load_windowInMs__C                                  
000162ac  ti_uia_loggers_LoggerStopMode_Module__diagsEnabled__C                
000162b0  ti_uia_loggers_LoggerStopMode_Module__diagsIncluded__C               
000162b4  ti_uia_loggers_LoggerStopMode_Module__diagsMask__C                   
000162b8  ti_uia_loggers_LoggerStopMode_Object__count__C                       
000162bc  ti_uia_runtime_ILoggerSnapshot_Interface__BASE__C                    
000162c0  ti_uia_runtime_IUIATransfer_Interface__BASE__C                       
000162c4  xdc_runtime_Assert_E_assertFailed__C                                 
000162c8  xdc_runtime_Core_A_initializedParams__C                              
000162cc  xdc_runtime_Core_Module__diagsEnabled__C                             
000162d0  xdc_runtime_Core_Module__diagsIncluded__C                            
000162d4  xdc_runtime_Core_Module__diagsMask__C                                
000162d8  xdc_runtime_Error_E_memory__C                                        
000162dc  xdc_runtime_Error_Module__diagsEnabled__C                            
000162e0  xdc_runtime_Error_Module__diagsIncluded__C                           
000162e4  xdc_runtime_Error_Module__diagsMask__C                               
000162e8  xdc_runtime_Error_Module__loggerFxn8__C                              
000162ec  xdc_runtime_Error_Module__loggerObj__C                               
000162f0  xdc_runtime_Error_policyFxn__C                                       
000162f4  xdc_runtime_Error_raiseHook__C                                       
000162f8  xdc_runtime_IFilterLogger_Interface__BASE__C                         
000162fc  xdc_runtime_IGateProvider_Interface__BASE__C                         
00016300  xdc_runtime_IHeap_Interface__BASE__C                                 
00016304  xdc_runtime_ILogger_Interface__BASE__C                               
00016308  xdc_runtime_IModule_Interface__BASE__C                               
0001630c  xdc_runtime_Log_L_error__C                                           
00016310  xdc_runtime_Memory_defaultHeapInstance__C                            
00016314  xdc_runtime_Startup_execImpl__C                                      
00016318  xdc_runtime_Startup_lastFxns__A                                      
0001631c  xdc_runtime_Startup_maxPasses__C                                     
00016320  xdc_runtime_Startup_sfxnRts__C                                       
00016324  xdc_runtime_Startup_sfxnTab__C                                       
00016328  xdc_runtime_SysMin_bufSize__C                                        
0001632c  xdc_runtime_SysMin_outputFunc__C                                     
00016330  xdc_runtime_System_Module__gateObj__C                                
00016334  xdc_runtime_System_abortFxn__C                                       
00016338  xdc_runtime_System_exitFxn__C                                        
0001633c  xdc_runtime_System_extendFxn__C                                      
00016340  xdc_runtime_System_maxAtexitHandlers__C                              
00016344  xdc_runtime_Text_charTab__C                                          
00016348  xdc_runtime_Text_nameEmpty__C                                        
0001634c  xdc_runtime_Text_nameStatic__C                                       
00016350  xdc_runtime_Text_nameUnknown__C                                      
00016354  xdc_runtime_Text_nodeTab__C                                          
00016358  xdc_runtime_Text_visitRopeFxn__C                                     
0001635c  ti_sysbios_family_arm_m3_Hwi_Module__id__C                           
0001635e  ti_sysbios_family_arm_m3_Hwi_Module__loggerDefined__C                
00016360  ti_sysbios_gates_GateMutex_Module__id__C                             
00016362  ti_sysbios_heaps_HeapMem_Module__id__C                               
00016364  ti_sysbios_knl_Clock_Module__id__C                                   
00016366  ti_sysbios_knl_Clock_Module__loggerDefined__C                        
00016368  ti_sysbios_knl_Event_Module__id__C                                   
0001636a  ti_sysbios_knl_Event_Module__loggerDefined__C                        
0001636c  ti_sysbios_knl_Semaphore_Module__id__C                               
0001636e  ti_sysbios_knl_Semaphore_Module__loggerDefined__C                    
00016370  ti_sysbios_knl_Task_Module__id__C                                    
00016372  ti_sysbios_knl_Task_Module__loggerDefined__C                         
00016374  ti_sysbios_knl_Task_initStackFlag__C                                 
00016376  ti_sysbios_utils_Load_Module__id__C                                  
00016378  ti_sysbios_utils_Load_Module__loggerDefined__C                       
0001637a  ti_sysbios_utils_Load_hwiEnabled__C                                  
0001637c  ti_sysbios_utils_Load_updateInIdle__C                                
0001637e  ti_uia_loggers_LoggerStopMode_Module__id__C                          
00016380  ti_uia_loggers_LoggerStopMode_isTimestampEnabled__C                  
00016382  xdc_runtime_Core_Module__id__C                                       
00016384  xdc_runtime_Error_Module__loggerDefined__C                           
00016386  xdc_runtime_Error_maxDepth__C                                        
00016388  xdc_runtime_Memory_Module__id__C                                     
0001638a  xdc_runtime_SysMin_flushAtExit__C                                    
0001638c  xdc_runtime_Text_charCnt__C                                          
0001638e  xdc_runtime_Text_isLoaded__C                                         
00016390  xdc_runtime_Text_registryModsLastId__C                               
00016392  xdc_runtime_Text_unnamedModsLastId__C                                
00016398  __TI_static_base__                                                   
000167fc  __TI_Handler_Table_Base                                              
00016808  __TI_Handler_Table_Limit                                             
00016818  __TI_CINIT_Base                                                      
00016830  __TI_CINIT_Limit                                                     
20000000  ti_sysbios_family_arm_m3_Hwi_ramVectors                              
20000400  ti_sysbios_heaps_HeapMem_Instance_State_0_buf__A                     
20002400  ti_sysbios_knl_Task_Instance_State_0_stack__A                        
20002700  ti_sysbios_knl_Task_Instance_State_1_stack__A                        
20002f00  ti_sysbios_knl_Task_Instance_State_2_stack__A                        
20003200  ti_sysbios_knl_Task_Instance_State_3_stack__A                        
200040cc  bufferSem                                                            
200040d0  ti_sysbios_knl_Mailbox_Instance_State_0_allocBuf__A                  
20004530  g_psDCDInst                                                          
20004580  ti_uia_loggers_LoggerStopMode_Instance_State_2_packetArray__A        
20004980  usbmschfatfstivaObjects                                              
20004d18  ti_sysbios_family_arm_m3_Hwi_dispatchTable                           
20005078  sdspiTivaObjects                                                     
200052b8  __CIOBUF_                                                            
200053f8  emacObjects                                                          
20005600  ti_uia_loggers_LoggerStopMode_Instance_State_1_packetArray__A        
20005800  i2cTivaObjects                                                       
20005ad0  uartTivaRingBuffer                                                   
20005af0  pwmTivaObjects                                                       
20005b00  ti_uia_loggers_LoggerStopMode_Instance_State_0_packetArray__A        
20005c00  spiTivaDMAObjects                                                    
20005ce4  uartTivaObjects                                                      
20005ffc  xdc_runtime_SysMin_Module_State_0_outbuf__A                          
200060bc  buffer                                                               
20006100  ti_uia_loggers_LoggerStopMode_Instance_State_0_hdr__A                
20006130  watchdogTivaObjects                                                  
20006180  ti_uia_loggers_LoggerStopMode_Instance_State_1_hdr__A                
200061b0  g_pfnTickHandlers                                                    
200061f8  g_ppsDevInfo                                                         
20006200  ti_uia_loggers_LoggerStopMode_Instance_State_2_hdr__A                
20006230  g_pvTickInstance                                                     
20006250  g_ui32PollRate                                                       
2000625c  g_eOTGModeState                                                      
20006260  spiTivaDMAscratchBuf                                                 
2000626c  xdc_runtime_Diags_dictElems                                          
2000627c  ti_sysbios_family_arm_lm4_Timer_Module__root__V                      
20006284  ti_sysbios_family_arm_lm4_Timer_Module_State_0_handles__A            
200062a4  ti_sysbios_family_arm_lm4_Timer_Module__state__V                     
200062b0  ti_sysbios_family_arm_lm4_TimestampProvider_Module__state__V         
200062b8  ti_sysbios_family_arm_m3_Hwi_Module__root__V                         
200062c0  ti_sysbios_family_arm_m3_Hwi_Module_State_0_excActive__A             
200062c4  ti_sysbios_family_arm_m3_Hwi_Module_State_0_excContext__A            
200062c8  ti_sysbios_family_arm_m3_Hwi_Module_State_0_excStack__A              
200062cc  ti_sysbios_gates_GateHwi_Module__root__V                             
200062d4  ti_sysbios_gates_GateHwi_Object__table__V                            
200062d8  ti_sysbios_gates_GateMutex_Module__root__V                           
200062e0  ti_sysbios_hal_Hwi_Module__root__V                                   
200062e8  ti_sysbios_heaps_HeapMem_Module__root__V                             
200062f0  ti_sysbios_heaps_HeapMem_Object__table__V                            
20006308  ti_sysbios_knl_Clock_Module__root__V                                 
20006310  ti_sysbios_knl_Event_Module__root__V                                 
2000631c  ti_sysbios_knl_Event_Object__table__V                                
20006334  ti_sysbios_knl_Mailbox_Module__root__V                               
2000633c  ti_sysbios_knl_Queue_Module__root__V                                 
20006344  ti_sysbios_knl_Semaphore_Module__root__V                             
2000634c  ti_sysbios_knl_Task_Module__root__V                                  
20006358  ti_sysbios_knl_Task_Module_State_0_readyQ__A                         
20006378  ti_sysbios_knl_Task_Module_State_0_idleTask__A                       
2000637c  ti_sysbios_utils_Load_Module_State_0_taskStartTime__A                
20006380  ti_sysbios_utils_Load_Module_State_0_runningTask__A                  
20006384  ti_uia_loggers_LoggerStopMode_Module__root__V                        
2000638c  ti_uia_loggers_LoggerStopMode_Module__state__V                       
20006394  ti_uia_runtime_QueueDescriptor_Module__state__V                      
200063a0  xdc_runtime_Error_Module__state__V                                   
200063a2  xdc_runtime_Main_Module__root__V                                     
200063a4  xdc_runtime_Memory_Module__state__V                                  
200063a8  xdc_runtime_Registry_Module__state__V                                
200063b0  xdc_runtime_Startup_Module__state__V                                 
200063b8  xdc_runtime_SysMin_Module__state__V                                  
200063c4  xdc_runtime_System_Module_State_0_atexitHandlers__A                  
200063cc  xdc_runtime_System_Module__state__V                                  
200063d4  xdc_runtime_Text_Module__state__V                                    
200063dc  __xdc__init__addr                                                    
200063e0  ti_sysbios_knl_Task_Object__table__V                                 
200064c4  TSK_idle                                                             
20006510  ti_uia_loggers_LoggerStopMode_Object__table__V                       
200065ac  ti_sysbios_utils_Load_Module__state__V                               
20006644  ti_sysbios_family_arm_lm4_Timer_Object__table__V                     
200066c4  gpioPinConfigs                                                       
2000676c  ti_sysbios_knl_Mailbox_Object__table__V                              
200067bc  ti_sysbios_knl_Task_Module__state__V                                 
20006800  ti_sysbios_family_arm_lm4_Timer_Module_State_0_device__A             
20006840  ti_sysbios_gates_GateMutex_Object__table__V                          
20006878  ti_sysbios_family_arm_m3_Hwi_Module__state__V                        
200068ac  enablePrefetch                                                       
200068b0  phyCounter                                                           
200068e0  ti_sysbios_family_arm_m3_Hwi_Object__table__V                        
20006910  ti_sysbios_knl_Clock_Module__state__V                                
20006968  ti_sysbios_BIOS_Module__state__V                                     
200069c1  macAddress                                                           
200069c8  gpioCallbackFunctions                                                
200069e8  g_bUSBTimerInitialized                                               
200069ec  g_ui32CurrentUSBTick                                                 
200069f0  g_ui32USBSOFCount                                                    
200069f4  g_iUSBMode                                                           
200069f8  g_ui32WaitTicks                                                      
20006a00  _lock                                                                
20006a04  _unlock                                                              
20006a08  __TI_cleanup_ptr                                                     
20006a0c  __TI_dtors_ptr                                                       
20006a10  ti_uia_runtime_QueueDescriptor_gPtrToFirstDescriptor                 
20006a14  ti_uia_runtime_QueueDescriptor_gUpdateCount                          
20006a28  bufferCounter                                                        
20006a50  main_func_sp                                                         
20006a54  __stack                                                              
20006c54  __STACK_TOP                                                          
20006d54  __STACK_END                                                          
e000e000  ti_sysbios_family_arm_m3_Hwi_nvic                                    
ffffffff  __binit__                                                            
ffffffff  __c_args__                                                           
ffffffff  binit                                                                
UNDEFED   SHT$$INIT_ARRAY$$Base                                                
UNDEFED   SHT$$INIT_ARRAY$$Limit                                               
UNDEFED   WiFi_init                                                            

[1136 symbols]
